(dp0
S'cookies'
p1
(dp2
S'webwx_data_ticket'
p3
S'gSeXcyzyVXM9HXij4Mkwysdn'
p4
sS'wxuin'
p5
S'1727002728'
p6
sS'webwxuvid'
p7
S'ba1489548a0f6a65fd2fa40821b1b2020b0cc7d294403bd962d0e6ddd1a9f785b6a6f1d037459008457b9ebccb1caae0'
p8
sS'webwx_auth_ticket'
p9
S'CIsBEJzpiJ4MGoABAH9Qe9eRK9S6Ezs8Jq3YgDnoLPKbQBCW7P7tURdMlW08kvFz8JFK42YANAfSIqKyW+wkNPY4thPUTH4YrP9T+0I41yjADTYbzhvZ4Ewg61lrB84eyTw5KiRtygZqSx0NOklpZ6fY/JyLD1El/UN+xhugwi7Rt+Q5hb+nnWrBuAI='
p10
sS'wxloadtime'
p11
S'1496917952'
p12
sS'wxsid'
p13
S'02J/87eFb8AOvd33'
p14
sS'mm_lang'
p15
S'zh_CN'
p16
ssS'version'
p17
S'1.3.7'
p18
sS'storage'
p19
(dp20
S'userName'
p21
V@17a6e50b5d20e32ee5edd7b846b70b92cc9c36f74261edbc51eeedce7d87f311
p22
sS'lastInputUserName'
p23
NsS'memberList'
p24
ccopy_reg
_reconstructor
p25
(citchat.storage.templates
ContactList
p26
c__builtin__
list
p27
(lp28
g25
(citchat.storage.templates
User
p29
c__builtin__
dict
p30
(dp31
S'UserName'
p32
g22
sS'City'
p33
S''
p34
sS'DisplayName'
p35
g34
sS'UniFriend'
p36
I0
sS'OwnerUin'
p37
I0
sS'MemberList'
p38
g25
(g26
g27
(lp39
tp40
Rp41
I1
bsS'PYQuanPin'
p42
V
p43
sS'RemarkPYInitial'
p44
g43
sS'Uin'
p45
I1727002728
sS'AppAccountFlag'
p46
I0
sS'VerifyFlag'
p47
I0
sS'Province'
p48
g34
sS'KeyWord'
p49
g34
sS'RemarkName'
p50
g43
sS'PYInitial'
p51
g43
sS'ChatRoomId'
p52
I0
sS'HideInputBarFlag'
p53
I0
sVHeadImgFlag
p54
I1
sS'EncryChatRoomId'
p55
g34
sS'AttrStatus'
p56
I0
sS'SnsFlag'
p57
I17
sS'MemberCount'
p58
I0
sVWebWxPluginSwitch
p59
I0
sS'Alias'
p60
g34
sS'Signature'
p61
g43
sS'ContactFlag'
p62
I0
sS'NickName'
p63
Vwavelet
p64
sS'RemarkPYQuanPin'
p65
g43
sS'HeadImgUrl'
p66
V/cgi-bin/mmwebwx-bin/webwxgeticon?seq=1208711620&username=@17a6e50b5d20e32ee5edd7b846b70b92cc9c36f74261edbc51eeedce7d87f311&skey=@crypt_9fe8734c_86fe8e39d9196b957da5836cfda1b519
p67
sS'Sex'
p68
I1
sS'StarFriend'
p69
I0
sS'Statues'
p70
I0
stp71
Rp72
I1
bag25
(g29
g30
(dp73
VUserName
p74
V@9785a6e3e0db037fe7ea7ddb46503e20
p75
sVCity
p76
g43
sVSnsFlag
p77
I17
sVDisplayName
p78
g43
sVUniFriend
p79
I0
sVMemberCount
p80
I0
sVOwnerUin
p81
I0
sVMemberList
p82
g41
sVAlias
p83
g43
sVPYQuanPin
p84
Vwangxingrenbuaixiang
p85
sVSignature
p86
V\u65e5\u6572\u4ee3\u7801\u4e09\u767e\u884c\uff01
p87
sVRemarkPYInitial
p88
VWHX
p89
sVContactFlag
p90
I3
sVUin
p91
I0
sVNickName
p92
V\u6c6a\u661f\u4eba\u4e0d\u7231\u7fd4
p93
sVAppAccountFlag
p94
I0
sVVerifyFlag
p95
I0
sVRemarkPYQuanPin
p96
Vwanghongxiang
p97
sVHeadImgUrl
p98
V/cgi-bin/mmwebwx-bin/webwxgeticon?seq=668413488&username=@9785a6e3e0db037fe7ea7ddb46503e20&skey=@crypt_9fe8734c_86fe8e39d9196b957da5836cfda1b519
p99
sVKeyWord
p100
Vkak
p101
sVProvince
p102
g43
sVPYInitial
p103
VWXRBAX
p104
sVRemarkName
p105
V\u6c6a\u9e3f\u7fd4
p106
sVIsOwner
p107
I0
sVSex
p108
I1
sVStarFriend
p109
I0
sVHideInputBarFlag
p110
I0
sVChatRoomId
p111
I0
sVEncryChatRoomId
p112
g43
sVAttrStatus
p113
I21037563
sVStatues
p114
I0
stp115
Rp116
I1
bag25
(g29
g30
(dp117
VUserName
p118
V@c3b3b13ecd4338eebd17f2cc54a602f1f768a57f8ea4c7e6ba24a49e41338f48
p119
sVCity
p120
V\u6cc9\u5dde
p121
sVSnsFlag
p122
I17
sVDisplayName
p123
g43
sVUniFriend
p124
I0
sVMemberCount
p125
I0
sVOwnerUin
p126
I0
sVMemberList
p127
g41
sVAlias
p128
g43
sVPYQuanPin
p129
Vsodermalm
p130
sVSignature
p131
Vshow you the best of mine
p132
sVRemarkPYInitial
p133
VMX
p134
sVContactFlag
p135
I3
sVUin
p136
I0
sVNickName
p137
Vsodermalm
p138
sVAppAccountFlag
p139
I0
sVVerifyFlag
p140
I0
sVRemarkPYQuanPin
p141
Vmaoxian
p142
sVHeadImgUrl
p143
V/cgi-bin/mmwebwx-bin/webwxgeticon?seq=648512225&username=@c3b3b13ecd4338eebd17f2cc54a602f1f768a57f8ea4c7e6ba24a49e41338f48&skey=@crypt_9fe8734c_86fe8e39d9196b957da5836cfda1b519
p144
sVKeyWord
p145
g43
sVProvince
p146
V\u798f\u5efa
p147
sVPYInitial
p148
VSODERMALM
p149
sVRemarkName
p150
V\u6bdb\u7ebf
p151
sVIsOwner
p152
I0
sVSex
p153
I1
sVStarFriend
p154
I0
sVHideInputBarFlag
p155
I0
sVChatRoomId
p156
I0
sVEncryChatRoomId
p157
g43
sVAttrStatus
p158
I102433
sVStatues
p159
I0
stp160
Rp161
I1
bag25
(g29
g30
(dp162
VUserName
p163
V@e47d5575dc6d3d206a5e66e002fc66d3
p164
sVCity
p165
V\u6cc9\u5dde
p166
sVSnsFlag
p167
I49
sVDisplayName
p168
g43
sVUniFriend
p169
I0
sVMemberCount
p170
I0
sVOwnerUin
p171
I0
sVMemberList
p172
g41
sVAlias
p173
g43
sVPYQuanPin
p174
VViking
p175
sVSignature
p176
V\u6c89\u9ed8\u662f\u91d1\uff01
p177
sVRemarkPYInitial
p178
VHWQ
p179
sVContactFlag
p180
I3
sVUin
p181
I0
sVNickName
p182
VViking
p183
sVAppAccountFlag
p184
I0
sVVerifyFlag
p185
I0
sVRemarkPYQuanPin
p186
Vhuangweiqin
p187
sVHeadImgUrl
p188
V/cgi-bin/mmwebwx-bin/webwxgeticon?seq=664952921&username=@e47d5575dc6d3d206a5e66e002fc66d3&skey=@crypt_9fe8734c_86fe8e39d9196b957da5836cfda1b519
p189
sVKeyWord
p190
Vhua
p191
sVProvince
p192
V\u798f\u5efa
p193
sVPYInitial
p194
VVIKING
p195
sVRemarkName
p196
V\u9ec4\u709c\u94a6
p197
sVIsOwner
p198
I0
sVSex
p199
I1
sVStarFriend
p200
I0
sVHideInputBarFlag
p201
I0
sVChatRoomId
p202
I0
sVEncryChatRoomId
p203
g43
sVAttrStatus
p204
I99749
sVStatues
p205
I0
stp206
Rp207
I1
bag25
(g29
g30
(dp208
VUserName
p209
V@d70d4c2d1c7ef11ac328562038be6c32c0a8eb9d60be4a31967de2bfd8e3e990
p210
sVCity
p211
V\u6b66\u6c49
p212
sVSnsFlag
p213
I17
sVDisplayName
p214
g43
sVUniFriend
p215
I0
sVMemberCount
p216
I0
sVOwnerUin
p217
I0
sVMemberList
p218
g41
sVAlias
p219
g43
sVPYQuanPin
p220
VHDouspanclassemojiemoji1f338span
p221
sVSignature
p222
V\u7a7f\u5c71  \u6e21\u6cb3  \u6f02\u6d0b\u8fc7\u6d77\u770b\u98ce\u666f
p223
sVRemarkPYInitial
p224
VWHD
p225
sVContactFlag
p226
I3
sVUin
p227
I0
sVNickName
p228
VHDou\U0001f338
p229
sVAppAccountFlag
p230
I0
sVVerifyFlag
p231
I0
sVRemarkPYQuanPin
p232
Vwanghongdou
p233
sVHeadImgUrl
p234
V/cgi-bin/mmwebwx-bin/webwxgeticon?seq=668418870&username=@d70d4c2d1c7ef11ac328562038be6c32c0a8eb9d60be4a31967de2bfd8e3e990&skey=@crypt_9fe8734c_86fe8e39d9196b957da5836cfda1b519
p235
sVKeyWord
p236
g43
sVProvince
p237
V\u6e56\u5317
p238
sVPYInitial
p239
VHDOUSPANCLASSEMOJIEMOJI1F338SPAN
p240
sVRemarkName
p241
V\u738b\u7ea2\u8c46
p242
sVIsOwner
p243
I0
sVSex
p244
I2
sVStarFriend
p245
I0
sVHideInputBarFlag
p246
I0
sVChatRoomId
p247
I0
sVEncryChatRoomId
p248
g43
sVAttrStatus
p249
I102437
sVStatues
p250
I0
stp251
Rp252
I1
bag25
(g29
g30
(dp253
VUserName
p254
V@a162adb4632fc57d2cf7f65bd4c79a10
p255
sVCity
p256
V\u5357\u660c
p257
sVSnsFlag
p258
I49
sVDisplayName
p259
g43
sVUniFriend
p260
I0
sVMemberCount
p261
I0
sVOwnerUin
p262
I0
sVMemberList
p263
g41
sVAlias
p264
g43
sVPYQuanPin
p265
Vzhangyanlong
p266
sVSignature
p267
V\u5403\u522b\u4eba\u6240\u4e0d\u80fd\u5403\u7684\u82e6\uff0c\u5fcd\u522b\u4eba\u6240\u4e0d\u80fd\u5fcd\u7684\u6c14\u3002\u820d\u5f97\u6709\u9650\uff0c\u8d62\u5f97\u65e0\u9650\uff01
p268
sVRemarkPYInitial
p269
VJJ
p270
sVContactFlag
p271
I3
sVUin
p272
I0
sVNickName
p273
V\u5f20\u5f66\u9f99
p274
sVAppAccountFlag
p275
I0
sVVerifyFlag
p276
I0
sVRemarkPYQuanPin
p277
Vjiajiao
p278
sVHeadImgUrl
p279
V/cgi-bin/mmwebwx-bin/webwxgeticon?seq=621730246&username=@a162adb4632fc57d2cf7f65bd4c79a10&skey=@crypt_9fe8734c_86fe8e39d9196b957da5836cfda1b519
p280
sVKeyWord
p281
Vzyl
p282
sVProvince
p283
V\u6c5f\u897f
p284
sVPYInitial
p285
VZYL
p286
sVRemarkName
p287
V\u9a7e\u6821
p288
sVIsOwner
p289
I0
sVSex
p290
I1
sVStarFriend
p291
I0
sVHideInputBarFlag
p292
I0
sVChatRoomId
p293
I0
sVEncryChatRoomId
p294
g43
sVAttrStatus
p295
I102463
sVStatues
p296
I0
stp297
Rp298
I1
bag25
(g29
g30
(dp299
VUserName
p300
V@c7fcb657f8dbb153d755b6b0b3243ffacc638a445c6fce4bc662f0042970c1bc
p301
sVCity
p302
V\u6df1\u5733
p303
sVSnsFlag
p304
I16
sVDisplayName
p305
g43
sVUniFriend
p306
I0
sVMemberCount
p307
I0
sVOwnerUin
p308
I0
sVMemberList
p309
g41
sVAlias
p310
g43
sVPYQuanPin
p311
Vzouzhengqing
p312
sVSignature
p313
g43
sVRemarkPYInitial
p314
VLB
p315
sVContactFlag
p316
I3
sVUin
p317
I0
sVNickName
p318
V\u90b9\u653f\u6e05
p319
sVAppAccountFlag
p320
I0
sVVerifyFlag
p321
I0
sVRemarkPYQuanPin
p322
Vlaoba
p323
sVHeadImgUrl
p324
V/cgi-bin/mmwebwx-bin/webwxgeticon?seq=648489117&username=@c7fcb657f8dbb153d755b6b0b3243ffacc638a445c6fce4bc662f0042970c1bc&skey=@crypt_9fe8734c_86fe8e39d9196b957da5836cfda1b519
p325
sVKeyWord
p326
g43
sVProvince
p327
V\u5e7f\u4e1c
p328
sVPYInitial
p329
VZZQ
p330
sVRemarkName
p331
V\u8001\u7238
p332
sVIsOwner
p333
I0
sVSex
p334
I1
sVStarFriend
p335
I0
sVHideInputBarFlag
p336
I0
sVChatRoomId
p337
I0
sVEncryChatRoomId
p338
g43
sVAttrStatus
p339
I4133
sVStatues
p340
I0
stp341
Rp342
I1
bag25
(g29
g30
(dp343
VUserName
p344
V@52156904bb4ae4712319fc5f5c4c995465123edaa2004902c7ecc7255ab03c6b
p345
sVCity
p346
V\u897f\u5b89
p347
sVSnsFlag
p348
I1
sVDisplayName
p349
g43
sVUniFriend
p350
I0
sVMemberCount
p351
I0
sVOwnerUin
p352
I0
sVMemberList
p353
g41
sVAlias
p354
g43
sVPYQuanPin
p355
Vfangxuelingcaishihaoshengyin
p356
sVSignature
p357
g43
sVRemarkPYInitial
p358
VXH
p359
sVContactFlag
p360
I3
sVUin
p361
I0
sVNickName
p362
V\u653e\u5b78\u9234\u624d\u662f\u597d\u8072\u97f3
p363
sVAppAccountFlag
p364
I0
sVVerifyFlag
p365
I0
sVRemarkPYQuanPin
p366
Vxuhao
p367
sVHeadImgUrl
p368
V/cgi-bin/mmwebwx-bin/webwxgeticon?seq=648498290&username=@52156904bb4ae4712319fc5f5c4c995465123edaa2004902c7ecc7255ab03c6b&skey=@crypt_9fe8734c_86fe8e39d9196b957da5836cfda1b519
p369
sVKeyWord
p370
g43
sVProvince
p371
V\u9655\u897f
p372
sVPYInitial
p373
VFXLCSHSY
p374
sVRemarkName
p375
V\u5f90\u6d69
p376
sVIsOwner
p377
I0
sVSex
p378
I1
sVStarFriend
p379
I0
sVHideInputBarFlag
p380
I0
sVChatRoomId
p381
I0
sVEncryChatRoomId
p382
g43
sVAttrStatus
p383
I200741
sVStatues
p384
I0
stp385
Rp386
I1
bag25
(g29
g30
(dp387
VUserName
p388
V@a1e1985b4713e094c8e0bbfb9a1377a1
p389
sVCity
p390
V\u5e7f\u5dde
p391
sVSnsFlag
p392
I17
sVDisplayName
p393
g43
sVUniFriend
p394
I0
sVMemberCount
p395
I0
sVOwnerUin
p396
I0
sVMemberList
p397
g41
sVAlias
p398
g43
sVPYQuanPin
p399
Vwangyanglidetaiyang
p400
sVSignature
p401
g43
sVRemarkPYInitial
p402
VLY
p403
sVContactFlag
p404
I3
sVUin
p405
I0
sVNickName
p406
V\u6c6a\u6d0b\u91cc\u7684\u592a\u9633
p407
sVAppAccountFlag
p408
I0
sVVerifyFlag
p409
I0
sVRemarkPYQuanPin
p410
Vluyang
p411
sVHeadImgUrl
p412
V/cgi-bin/mmwebwx-bin/webwxgeticon?seq=648506558&username=@a1e1985b4713e094c8e0bbfb9a1377a1&skey=@crypt_9fe8734c_86fe8e39d9196b957da5836cfda1b519
p413
sVKeyWord
p414
Vcki
p415
sVProvince
p416
V\u5e7f\u4e1c
p417
sVPYInitial
p418
VWYLDTY
p419
sVRemarkName
p420
V\u9646\u9633
p421
sVIsOwner
p422
I0
sVSex
p423
I1
sVStarFriend
p424
I0
sVHideInputBarFlag
p425
I0
sVChatRoomId
p426
I0
sVEncryChatRoomId
p427
g43
sVAttrStatus
p428
I16846887
sVStatues
p429
I0
stp430
Rp431
I1
bag25
(g29
g30
(dp432
VUserName
p433
V@5414414a5c314a0a51601b247863eb6d64db3fd66785d073a853ecb6c2c9407e
p434
sVCity
p435
V\u5b9c\u6625
p436
sVSnsFlag
p437
I17
sVDisplayName
p438
g43
sVUniFriend
p439
I0
sVMemberCount
p440
I0
sVOwnerUin
p441
I0
sVMemberList
p442
g41
sVAlias
p443
g43
sVPYQuanPin
p444
Vaiyoua
p445
sVSignature
p446
V\u4fe1\u4ef0\u5728\u7a7a\u4e2d\u98d8\u626c
p447
sVRemarkPYInitial
p448
VLB
p449
sVContactFlag
p450
I3
sVUin
p451
I0
sVNickName
p452
V\u54ce\u5466\u5475
p453
sVAppAccountFlag
p454
I0
sVVerifyFlag
p455
I0
sVRemarkPYQuanPin
p456
Vlinbo
p457
sVHeadImgUrl
p458
V/cgi-bin/mmwebwx-bin/webwxgeticon?seq=648481025&username=@5414414a5c314a0a51601b247863eb6d64db3fd66785d073a853ecb6c2c9407e&skey=@crypt_9fe8734c_86fe8e39d9196b957da5836cfda1b519
p459
sVKeyWord
p460
g43
sVProvince
p461
V\u6c5f\u897f
p462
sVPYInitial
p463
VAYA
p464
sVRemarkName
p465
V\u6797\u6ce2
p466
sVIsOwner
p467
I0
sVSex
p468
I1
sVStarFriend
p469
I0
sVHideInputBarFlag
p470
I0
sVChatRoomId
p471
I0
sVEncryChatRoomId
p472
g43
sVAttrStatus
p473
I4901
sVStatues
p474
I0
stp475
Rp476
I1
bag25
(g29
g30
(dp477
VUserName
p478
V@a5068cc7f2adba9fde7af08d7c0dede1
p479
sVCity
p480
V\u5357\u660c
p481
sVSnsFlag
p482
I17
sVDisplayName
p483
g43
sVUniFriend
p484
I0
sVMemberCount
p485
I0
sVOwnerUin
p486
I0
sVMemberList
p487
g41
sVAlias
p488
g43
sVPYQuanPin
p489
Vxunshanxiaolouluo
p490
sVSignature
p491
V\u76f8\u9047\uff0c\u90fd\u662f\u4e45\u522b\u91cd\u9022
p492
sVRemarkPYInitial
p493
VHY
p494
sVContactFlag
p495
I3
sVUin
p496
I0
sVNickName
p497
V\u5de1\u5c71\u5c0f\u55bd\u5570
p498
sVAppAccountFlag
p499
I0
sVVerifyFlag
p500
I0
sVRemarkPYQuanPin
p501
Vhuangyao
p502
sVHeadImgUrl
p503
V/cgi-bin/mmwebwx-bin/webwxgeticon?seq=648512395&username=@a5068cc7f2adba9fde7af08d7c0dede1&skey=@crypt_9fe8734c_86fe8e39d9196b957da5836cfda1b519
p504
sVKeyWord
p505
Vnon
p506
sVProvince
p507
V\u6c5f\u897f
p508
sVPYInitial
p509
VXSXLL
p510
sVRemarkName
p511
V\u9ec4\u7476
p512
sVIsOwner
p513
I0
sVSex
p514
I1
sVStarFriend
p515
I0
sVHideInputBarFlag
p516
I0
sVChatRoomId
p517
I0
sVEncryChatRoomId
p518
g43
sVAttrStatus
p519
I36903
sVStatues
p520
I0
stp521
Rp522
I1
bag25
(g29
g30
(dp523
VUserName
p524
V@94b78d74be579a40da41e9c7845dac63
p525
sVCity
p526
V\u5357\u4eac
p527
sVSnsFlag
p528
I17
sVDisplayName
p529
g43
sVUniFriend
p530
I0
sVMemberCount
p531
I0
sVOwnerUin
p532
I0
sVMemberList
p533
g41
sVAlias
p534
g43
sVPYQuanPin
p535
Vjiaowolaochenxingleba
p536
sVSignature
p537
Vscaltoy
p538
sVRemarkPYInitial
p539
VCT
p540
sVContactFlag
p541
I3
sVUin
p542
I0
sVNickName
p543
V\u53eb\u6211\u8001\u9648\u884c\u4e86\u5427
p544
sVAppAccountFlag
p545
I0
sVVerifyFlag
p546
I0
sVRemarkPYQuanPin
p547
Vchentao
p548
sVHeadImgUrl
p549
V/cgi-bin/mmwebwx-bin/webwxgeticon?seq=648519558&username=@94b78d74be579a40da41e9c7845dac63&skey=@crypt_9fe8734c_86fe8e39d9196b957da5836cfda1b519
p550
sVKeyWord
p551
Vctx
p552
sVProvince
p553
V\u6c5f\u82cf
p554
sVPYInitial
p555
VJWLCXLB
p556
sVRemarkName
p557
V\u9648\u6d9b
p558
sVIsOwner
p559
I0
sVSex
p560
I1
sVStarFriend
p561
I0
sVHideInputBarFlag
p562
I0
sVChatRoomId
p563
I0
sVEncryChatRoomId
p564
g43
sVAttrStatus
p565
I71799
sVStatues
p566
I0
stp567
Rp568
I1
bag25
(g29
g30
(dp569
VUserName
p570
V@94a93d3a4322e61d2b6606aabffca87a7bbb9c0d6c834ca821be32261cf6c569
p571
sVCity
p572
V\u5e7f\u5dde
p573
sVSnsFlag
p574
I17
sVDisplayName
p575
g43
sVUniFriend
p576
I0
sVMemberCount
p577
I0
sVOwnerUin
p578
I0
sVMemberList
p579
g41
sVAlias
p580
g43
sVPYQuanPin
p581
Vtomorrow
p582
sVSignature
p583
g43
sVRemarkPYInitial
p584
VCF
p585
sVContactFlag
p586
I3
sVUin
p587
I0
sVNickName
p588
Vtomorrow
p589
sVAppAccountFlag
p590
I0
sVVerifyFlag
p591
I0
sVRemarkPYQuanPin
p592
Vcaofan
p593
sVHeadImgUrl
p594
V/cgi-bin/mmwebwx-bin/webwxgeticon?seq=632408001&username=@94a93d3a4322e61d2b6606aabffca87a7bbb9c0d6c834ca821be32261cf6c569&skey=@crypt_9fe8734c_86fe8e39d9196b957da5836cfda1b519
p595
sVKeyWord
p596
g43
sVProvince
p597
V\u5e7f\u4e1c
p598
sVPYInitial
p599
VTOMORROW
p600
sVRemarkName
p601
V\u66f9\u51e1
p602
sVIsOwner
p603
I0
sVSex
p604
I1
sVStarFriend
p605
I0
sVHideInputBarFlag
p606
I0
sVChatRoomId
p607
I0
sVEncryChatRoomId
p608
g43
sVAttrStatus
p609
I4197
sVStatues
p610
I0
stp611
Rp612
I1
bag25
(g29
g30
(dp613
VUserName
p614
V@536894c4b12355981155a55d877e85f7
p615
sVCity
p616
V\u82cf\u5dde
p617
sVSnsFlag
p618
I17
sVDisplayName
p619
g43
sVUniFriend
p620
I0
sVMemberCount
p621
I0
sVOwnerUin
p622
I0
sVMemberList
p623
g41
sVAlias
p624
g43
sVPYQuanPin
p625
Vxuanyi
p626
sVSignature
p627
g43
sVRemarkPYInitial
p628
VYS
p629
sVContactFlag
p630
I3
sVUin
p631
I0
sVNickName
p632
V\u8f69\u827a
p633
sVAppAccountFlag
p634
I0
sVVerifyFlag
p635
I0
sVRemarkPYQuanPin
p636
Vyusheng
p637
sVHeadImgUrl
p638
V/cgi-bin/mmwebwx-bin/webwxgeticon?seq=661562732&username=@536894c4b12355981155a55d877e85f7&skey=@crypt_9fe8734c_86fe8e39d9196b957da5836cfda1b519
p639
sVKeyWord
p640
VHYS
p641
sVProvince
p642
V\u6c5f\u82cf
p643
sVPYInitial
p644
VXY
p645
sVRemarkName
p646
V\u5b87\u751f
p647
sVIsOwner
p648
I0
sVSex
p649
I1
sVStarFriend
p650
I0
sVHideInputBarFlag
p651
I0
sVChatRoomId
p652
I0
sVEncryChatRoomId
p653
g43
sVAttrStatus
p654
I102951
sVStatues
p655
I0
stp656
Rp657
I1
bag25
(g29
g30
(dp658
VUserName
p659
V@cdb268a8fc73369ba866662dc8ad7d1a
p660
sVCity
p661
V\u94dc\u4ec1
p662
sVSnsFlag
p663
I17
sVDisplayName
p664
g43
sVUniFriend
p665
I0
sVMemberCount
p666
I0
sVOwnerUin
p667
I0
sVMemberList
p668
g41
sVAlias
p669
g43
sVPYQuanPin
p670
Vshuimoqinghua
p671
sVSignature
p672
V\u4e00\u4e2a\u4eba\u8981\u60f3\u83b7\u5f97\u9605\u5386\uff0c\u5c31\u5fc5\u987b\u4e3a\u6b64\u4ed8\u51fa\u4ee3\u4ef7
p673
sVRemarkPYInitial
p674
VWY
p675
sVContactFlag
p676
I3
sVUin
p677
I0
sVNickName
p678
V\u6c34\u58a8\u9752\u534e
p679
sVAppAccountFlag
p680
I0
sVVerifyFlag
p681
I0
sVRemarkPYQuanPin
p682
Vweiyao
p683
sVHeadImgUrl
p684
V/cgi-bin/mmwebwx-bin/webwxgeticon?seq=648517313&username=@cdb268a8fc73369ba866662dc8ad7d1a&skey=@crypt_9fe8734c_86fe8e39d9196b957da5836cfda1b519
p685
sVKeyWord
p686
Vq12
p687
sVProvince
p688
V\u8d35\u5dde
p689
sVPYInitial
p690
VSMQH
p691
sVRemarkName
p692
V\u80c3\u836f
p693
sVIsOwner
p694
I0
sVSex
p695
I1
sVStarFriend
p696
I0
sVHideInputBarFlag
p697
I0
sVChatRoomId
p698
I0
sVEncryChatRoomId
p699
g43
sVAttrStatus
p700
I68541
sVStatues
p701
I0
stp702
Rp703
I1
bag25
(g29
g30
(dp704
VUserName
p705
V@aefe77ceba566df9b04719cd7c86d06f
p706
sVCity
p707
V\u5357\u660c
p708
sVSnsFlag
p709
I17
sVDisplayName
p710
g43
sVUniFriend
p711
I0
sVMemberCount
p712
I0
sVOwnerUin
p713
I0
sVMemberList
p714
g41
sVAlias
p715
g43
sVPYQuanPin
p716
Vxiebo
p717
sVSignature
p718
V\u7b2c\u4e00\u624d\u4f1a\u88ab\u4eba\u94ed\u8bb0\u3002
p719
sVRemarkPYInitial
p720
g43
sVContactFlag
p721
I3
sVUin
p722
I0
sVNickName
p723
V\u8c22\u6ce2
p724
sVAppAccountFlag
p725
I0
sVVerifyFlag
p726
I0
sVRemarkPYQuanPin
p727
g43
sVHeadImgUrl
p728
V/cgi-bin/mmwebwx-bin/webwxgeticon?seq=664953050&username=@aefe77ceba566df9b04719cd7c86d06f&skey=@crypt_9fe8734c_86fe8e39d9196b957da5836cfda1b519
p729
sVKeyWord
p730
Vtuz
p731
sVProvince
p732
V\u6c5f\u897f
p733
sVPYInitial
p734
VXB
p735
sVRemarkName
p736
g43
sVIsOwner
p737
I0
sVSex
p738
I1
sVStarFriend
p739
I0
sVHideInputBarFlag
p740
I0
sVChatRoomId
p741
I0
sVEncryChatRoomId
p742
g43
sVAttrStatus
p743
I102887
sVStatues
p744
I0
stp745
Rp746
I1
bag25
(g29
g30
(dp747
VUserName
p748
V@ef4698566aacdcaac7035a21bdc306675e3746b84781234b157de861c5eaf3ed
p749
sVCity
p750
V\u5357\u660c
p751
sVSnsFlag
p752
I17
sVDisplayName
p753
g43
sVUniFriend
p754
I0
sVMemberCount
p755
I0
sVOwnerUin
p756
I0
sVMemberList
p757
g41
sVAlias
p758
g43
sVPYQuanPin
p759
Vjianshandewenzi
p760
sVSignature
p761
g43
sVRemarkPYInitial
p762
VPQ
p763
sVContactFlag
p764
I3
sVUin
p765
I0
sVNickName
p766
V\u7b80\u5355\u7684\u6587\u5b57
p767
sVAppAccountFlag
p768
I0
sVVerifyFlag
p769
I0
sVRemarkPYQuanPin
p770
Vpuqiang
p771
sVHeadImgUrl
p772
V/cgi-bin/mmwebwx-bin/webwxgeticon?seq=664953746&username=@ef4698566aacdcaac7035a21bdc306675e3746b84781234b157de861c5eaf3ed&skey=@crypt_9fe8734c_86fe8e39d9196b957da5836cfda1b519
p773
sVKeyWord
p774
g43
sVProvince
p775
V\u6c5f\u897f
p776
sVPYInitial
p777
VJSDWZ
p778
sVRemarkName
p779
V\u666e\u5f3a
p780
sVIsOwner
p781
I0
sVSex
p782
I1
sVStarFriend
p783
I0
sVHideInputBarFlag
p784
I0
sVChatRoomId
p785
I0
sVEncryChatRoomId
p786
g43
sVAttrStatus
p787
I102439
sVStatues
p788
I0
stp789
Rp790
I1
bag25
(g29
g30
(dp791
VUserName
p792
V@38ac3f479343933b074ee69053d28d076708d49eb2499073bbfe823bc89c397b
p793
sVCity
p794
V\u6f33\u5dde
p795
sVSnsFlag
p796
I49
sVDisplayName
p797
g43
sVUniFriend
p798
I0
sVMemberCount
p799
I0
sVOwnerUin
p800
I0
sVMemberList
p801
g41
sVAlias
p802
g43
sVPYQuanPin
p803
Vexistingx
p804
sVSignature
p805
g43
sVRemarkPYInitial
p806
VLYM
p807
sVContactFlag
p808
I3
sVUin
p809
I0
sVNickName
p810
Vexisting x
p811
sVAppAccountFlag
p812
I0
sVVerifyFlag
p813
I0
sVRemarkPYQuanPin
p814
Vlinyanming
p815
sVHeadImgUrl
p816
V/cgi-bin/mmwebwx-bin/webwxgeticon?seq=648503647&username=@38ac3f479343933b074ee69053d28d076708d49eb2499073bbfe823bc89c397b&skey=@crypt_9fe8734c_86fe8e39d9196b957da5836cfda1b519
p817
sVKeyWord
p818
g43
sVProvince
p819
V\u798f\u5efa
p820
sVPYInitial
p821
VEXISTINGX
p822
sVRemarkName
p823
V\u6797\u708e\u660e
p824
sVIsOwner
p825
I0
sVSex
p826
I1
sVStarFriend
p827
I0
sVHideInputBarFlag
p828
I0
sVChatRoomId
p829
I0
sVEncryChatRoomId
p830
g43
sVAttrStatus
p831
I102589
sVStatues
p832
I0
stp833
Rp834
I1
bag25
(g29
g30
(dp835
VUserName
p836
V@beda0ec5cfaad42787e15de87e324bda
p837
sVCity
p838
V\u6cc9\u5dde
p839
sVSnsFlag
p840
I17
sVDisplayName
p841
g43
sVUniFriend
p842
I0
sVMemberCount
p843
I0
sVOwnerUin
p844
I0
sVMemberList
p845
g41
sVAlias
p846
g43
sVPYQuanPin
p847
Vlina
p848
sVSignature
p849
V\u966a\u4f34\u662f\u6700\u957f\u60c5\u7684\u544a\u767d
p850
sVRemarkPYInitial
p851
VLN
p852
sVContactFlag
p853
I8193
sVUin
p854
I0
sVNickName
p855
Vlina
p856
sVAppAccountFlag
p857
I0
sVVerifyFlag
p858
I0
sVRemarkPYQuanPin
p859
Vlina
p860
sVHeadImgUrl
p861
V/cgi-bin/mmwebwx-bin/webwxgeticon?seq=664955668&username=@beda0ec5cfaad42787e15de87e324bda&skey=@crypt_9fe8734c_86fe8e39d9196b957da5836cfda1b519
p862
sVKeyWord
p863
VL70
p864
sVProvince
p865
V\u798f\u5efa
p866
sVPYInitial
p867
VLINA
p868
sVRemarkName
p869
V\u674e\u5a1c
p870
sVIsOwner
p871
I0
sVSex
p872
I2
sVStarFriend
p873
I0
sVHideInputBarFlag
p874
I0
sVChatRoomId
p875
I0
sVEncryChatRoomId
p876
g43
sVAttrStatus
p877
I4199
sVStatues
p878
I0
stp879
Rp880
I1
bag25
(g29
g30
(dp881
VUserName
p882
V@b8669097092b4796eb649d2960b0e51f22ceea25fc21f9a33b8ed2c09835dd82
p883
sVCity
p884
V\u682a\u6d32
p885
sVSnsFlag
p886
I49
sVDisplayName
p887
g43
sVUniFriend
p888
I0
sVMemberCount
p889
I0
sVOwnerUin
p890
I0
sVMemberList
p891
g41
sVAlias
p892
g43
sVPYQuanPin
p893
Vxianrenzhangxindehuolongguo
p894
sVSignature
p895
V\u751f\u6d3b\u591a\u6709\u70e6\u607c\u4e0e\u4e0d\u5b89\uff0c\u653e\u677e\u5fc3\u60c5\uff0c\u50cf\u96cf\u83ca\u4e00\u6837\uff0c\u6c38\u8fdc\u6709\u707f\u70c2\u7684\u660e\u5929\uff01
p896
sVRemarkPYInitial
p897
VGG
p898
sVContactFlag
p899
I3
sVUin
p900
I0
sVNickName
p901
V\u4ed9\u4eba\u638c\u5fc3\u7684\u706b\u9f99\u679c
p902
sVAppAccountFlag
p903
I0
sVVerifyFlag
p904
I0
sVRemarkPYQuanPin
p905
Vgugu
p906
sVHeadImgUrl
p907
V/cgi-bin/mmwebwx-bin/webwxgeticon?seq=664955911&username=@b8669097092b4796eb649d2960b0e51f22ceea25fc21f9a33b8ed2c09835dd82&skey=@crypt_9fe8734c_86fe8e39d9196b957da5836cfda1b519
p908
sVKeyWord
p909
g43
sVProvince
p910
V\u6e56\u5357
p911
sVPYInitial
p912
VXRZXDHLG
p913
sVRemarkName
p914
V\u59d1\u59d1
p915
sVIsOwner
p916
I0
sVSex
p917
I2
sVStarFriend
p918
I0
sVHideInputBarFlag
p919
I0
sVChatRoomId
p920
I0
sVEncryChatRoomId
p921
g43
sVAttrStatus
p922
I104445
sVStatues
p923
I0
stp924
Rp925
I1
bag25
(g29
g30
(dp926
VUserName
p927
V@448deed3ee2cf7b193bafdd5a4021f4e94cf4d9cdb0e373ca8d8f5424d2e14b7
p928
sVCity
p929
V\u957f\u6c99
p930
sVSnsFlag
p931
I17
sVDisplayName
p932
g43
sVUniFriend
p933
I0
sVMemberCount
p934
I0
sVOwnerUin
p935
I0
sVMemberList
p936
g41
sVAlias
p937
g43
sVPYQuanPin
p938
Vjiangchunyan
p939
sVSignature
p940
V\u56de\u5f52\u2026\u2026
p941
sVRemarkPYInitial
p942
g43
sVContactFlag
p943
I3
sVUin
p944
I0
sVNickName
p945
V\u848b\u6625\u71d5
p946
sVAppAccountFlag
p947
I0
sVVerifyFlag
p948
I0
sVRemarkPYQuanPin
p949
g43
sVHeadImgUrl
p950
V/cgi-bin/mmwebwx-bin/webwxgeticon?seq=648484505&username=@448deed3ee2cf7b193bafdd5a4021f4e94cf4d9cdb0e373ca8d8f5424d2e14b7&skey=@crypt_9fe8734c_86fe8e39d9196b957da5836cfda1b519
p951
sVKeyWord
p952
g43
sVProvince
p953
V\u6e56\u5357
p954
sVPYInitial
p955
VJCY
p956
sVRemarkName
p957
g43
sVIsOwner
p958
I0
sVSex
p959
I2
sVStarFriend
p960
I0
sVHideInputBarFlag
p961
I0
sVChatRoomId
p962
I0
sVEncryChatRoomId
p963
g43
sVAttrStatus
p964
I71717
sVStatues
p965
I0
stp966
Rp967
I1
bag25
(g29
g30
(dp968
VUserName
p969
V@a28fc0b92dea463bb3b0f2a67b53acc4b7f0414b03d539b17772d2d975dcd904
p970
sVCity
p971
V\u5357\u660c
p972
sVSnsFlag
p973
I17
sVDisplayName
p974
g43
sVUniFriend
p975
I0
sVMemberCount
p976
I0
sVOwnerUin
p977
I0
sVMemberList
p978
g41
sVAlias
p979
g43
sVPYQuanPin
p980
Vaihouzidexiangjiao
p981
sVSignature
p982
V\u65f6\u95f4\u6d41\u901d\u4e86\uff0c\u5947\u8ff9\u5c31\u4f1a\u6765\u4e34\uff0c\u90a3\u662f\u9ea6\u8482
p983
sVRemarkPYInitial
p984
VFZ
p985
sVContactFlag
p986
I3
sVUin
p987
I0
sVNickName
p988
V\u7231\u7334\u5b50\u7684\u9999\u8549
p989
sVAppAccountFlag
p990
I0
sVVerifyFlag
p991
I0
sVRemarkPYQuanPin
p992
Vfanzhou
p993
sVHeadImgUrl
p994
V/cgi-bin/mmwebwx-bin/webwxgeticon?seq=648480889&username=@a28fc0b92dea463bb3b0f2a67b53acc4b7f0414b03d539b17772d2d975dcd904&skey=@crypt_9fe8734c_86fe8e39d9196b957da5836cfda1b519
p995
sVKeyWord
p996
g43
sVProvince
p997
V\u6c5f\u897f
p998
sVPYInitial
p999
VAHZDXJ
p1000
sVRemarkName
p1001
V\u8303\u6d32
p1002
sVIsOwner
p1003
I0
sVSex
p1004
I1
sVStarFriend
p1005
I0
sVHideInputBarFlag
p1006
I0
sVChatRoomId
p1007
I0
sVEncryChatRoomId
p1008
g43
sVAttrStatus
p1009
I135269
sVStatues
p1010
I0
stp1011
Rp1012
I1
bag25
(g29
g30
(dp1013
VUserName
p1014
V@1259f061cca838424f42117e5da29f0774f449818ce7f5808030adb7ccaf9bd3
p1015
sVCity
p1016
V\u5357\u660c
p1017
sVSnsFlag
p1018
I1
sVDisplayName
p1019
g43
sVUniFriend
p1020
I0
sVMemberCount
p1021
I0
sVOwnerUin
p1022
I0
sVMemberList
p1023
g41
sVAlias
p1024
g43
sVPYQuanPin
p1025
Vchaochao
p1026
sVSignature
p1027
VNothing more and nothing less.
p1028
sVRemarkPYInitial
p1029
VWES
p1030
sVContactFlag
p1031
I3
sVUin
p1032
I0
sVNickName
p1033
V\u671d\u671d
p1034
sVAppAccountFlag
p1035
I0
sVVerifyFlag
p1036
I0
sVRemarkPYQuanPin
p1037
Vwuershao
p1038
sVHeadImgUrl
p1039
V/cgi-bin/mmwebwx-bin/webwxgeticon?seq=648516426&username=@1259f061cca838424f42117e5da29f0774f449818ce7f5808030adb7ccaf9bd3&skey=@crypt_9fe8734c_86fe8e39d9196b957da5836cfda1b519
p1040
sVKeyWord
p1041
g43
sVProvince
p1042
V\u6c5f\u897f
p1043
sVPYInitial
p1044
VCC
p1045
sVRemarkName
p1046
V\u5434\u4e8c\u53ec
p1047
sVIsOwner
p1048
I0
sVSex
p1049
I1
sVStarFriend
p1050
I0
sVHideInputBarFlag
p1051
I0
sVChatRoomId
p1052
I0
sVEncryChatRoomId
p1053
g43
sVAttrStatus
p1054
I233511
sVStatues
p1055
I0
stp1056
Rp1057
I1
bag25
(g29
g30
(dp1058
VUserName
p1059
V@5672c6b78387789353f7ab45df8928fce54325d1aaed009cd4647f118a9e18fa
p1060
sVCity
p1061
g43
sVSnsFlag
p1062
I17
sVDisplayName
p1063
g43
sVUniFriend
p1064
I0
sVMemberCount
p1065
I0
sVOwnerUin
p1066
I0
sVMemberList
p1067
g41
sVAlias
p1068
g43
sVPYQuanPin
p1069
Vquxinspanclassemojiemoji1f48bspan
p1070
sVSignature
p1071
VThere is no substitute for hard work. First in, last out. 
p1072
sVRemarkPYInitial
p1073
g43
sVContactFlag
p1074
I3
sVUin
p1075
I0
sVNickName
p1076
V\u66f2\u6b23 \U0001f48b
p1077
sVAppAccountFlag
p1078
I0
sVVerifyFlag
p1079
I0
sVRemarkPYQuanPin
p1080
g43
sVHeadImgUrl
p1081
V/cgi-bin/mmwebwx-bin/webwxgeticon?seq=668413249&username=@5672c6b78387789353f7ab45df8928fce54325d1aaed009cd4647f118a9e18fa&skey=@crypt_9fe8734c_86fe8e39d9196b957da5836cfda1b519
p1082
sVKeyWord
p1083
g43
sVProvince
p1084
g43
sVPYInitial
p1085
VQXSPANCLASSEMOJIEMOJI1F48BSPAN
p1086
sVRemarkName
p1087
g43
sVIsOwner
p1088
I0
sVSex
p1089
I2
sVStarFriend
p1090
I0
sVHideInputBarFlag
p1091
I0
sVChatRoomId
p1092
I0
sVEncryChatRoomId
p1093
g43
sVAttrStatus
p1094
I110823
sVStatues
p1095
I0
stp1096
Rp1097
I1
bag25
(g29
g30
(dp1098
VUserName
p1099
V@e068ea3da4da4e35d896d67f472ca8b7be5e50a220e76db997641c4ccea04c4d
p1100
sVCity
p1101
V\u9ec4\u6d66
p1102
sVSnsFlag
p1103
I17
sVDisplayName
p1104
g43
sVUniFriend
p1105
I0
sVMemberCount
p1106
I0
sVOwnerUin
p1107
I0
sVMemberList
p1108
g41
sVAlias
p1109
g43
sVPYQuanPin
p1110
Vzuoyou
p1111
sVSignature
p1112
V\u5e38\u4e0e\u540c\u597d\u4e89\u9ad8\u4e0b\uff0c\u4e0d\u5171\u50bb\u74dc\u8bba\u77ed\u957f
p1113
sVRemarkPYInitial
p1114
VZXX
p1115
sVContactFlag
p1116
I3
sVUin
p1117
I0
sVNickName
p1118
V\u5de6\u53f3
p1119
sVAppAccountFlag
p1120
I0
sVVerifyFlag
p1121
I0
sVRemarkPYQuanPin
p1122
Vzuoxiaoxiong
p1123
sVHeadImgUrl
p1124
V/cgi-bin/mmwebwx-bin/webwxgeticon?seq=664954055&username=@e068ea3da4da4e35d896d67f472ca8b7be5e50a220e76db997641c4ccea04c4d&skey=@crypt_9fe8734c_86fe8e39d9196b957da5836cfda1b519
p1125
sVKeyWord
p1126
g43
sVProvince
p1127
V\u4e0a\u6d77
p1128
sVPYInitial
p1129
VZY
p1130
sVRemarkName
p1131
V\u5de6\u8096\u96c4
p1132
sVIsOwner
p1133
I0
sVSex
p1134
I1
sVStarFriend
p1135
I0
sVHideInputBarFlag
p1136
I0
sVChatRoomId
p1137
I0
sVEncryChatRoomId
p1138
g43
sVAttrStatus
p1139
I4198501
sVStatues
p1140
I0
stp1141
Rp1142
I1
bag25
(g29
g30
(dp1143
VUserName
p1144
V@453d8e805507017daa79e1f6a55a40871bfab43876f49ac2b2002ae0b40dac7a
p1145
sVCity
p1146
g43
sVSnsFlag
p1147
I17
sVDisplayName
p1148
g43
sVUniFriend
p1149
I0
sVMemberCount
p1150
I0
sVOwnerUin
p1151
I0
sVMemberList
p1152
g41
sVAlias
p1153
g43
sVPYQuanPin
p1154
Vwenyang
p1155
sVSignature
p1156
Vperfect is shit
p1157
sVRemarkPYInitial
p1158
g43
sVContactFlag
p1159
I3
sVUin
p1160
I0
sVNickName
p1161
V\u6587\u9633
p1162
sVAppAccountFlag
p1163
I0
sVVerifyFlag
p1164
I0
sVRemarkPYQuanPin
p1165
g43
sVHeadImgUrl
p1166
V/cgi-bin/mmwebwx-bin/webwxgeticon?seq=632407190&username=@453d8e805507017daa79e1f6a55a40871bfab43876f49ac2b2002ae0b40dac7a&skey=@crypt_9fe8734c_86fe8e39d9196b957da5836cfda1b519
p1167
sVKeyWord
p1168
g43
sVProvince
p1169
V\u6c5f\u897f
p1170
sVPYInitial
p1171
VWY
p1172
sVRemarkName
p1173
g43
sVIsOwner
p1174
I0
sVSex
p1175
I1
sVStarFriend
p1176
I0
sVHideInputBarFlag
p1177
I0
sVChatRoomId
p1178
I0
sVEncryChatRoomId
p1179
g43
sVAttrStatus
p1180
I16777253
sVStatues
p1181
I0
stp1182
Rp1183
I1
bag25
(g29
g30
(dp1184
VUserName
p1185
V@514e877e480c0e1c8058aecf9aa75d0f
p1186
sVCity
p1187
V\u5e7f\u5dde
p1188
sVSnsFlag
p1189
I17
sVDisplayName
p1190
g43
sVUniFriend
p1191
I0
sVMemberCount
p1192
I0
sVOwnerUin
p1193
I0
sVMemberList
p1194
g41
sVAlias
p1195
g43
sVPYQuanPin
p1196
Vohh
p1197
sVSignature
p1198
g43
sVRemarkPYInitial
p1199
VFK
p1200
sVContactFlag
p1201
I3
sVUin
p1202
I0
sVNickName
p1203
Vohh
p1204
sVAppAccountFlag
p1205
I0
sVVerifyFlag
p1206
I0
sVRemarkPYQuanPin
p1207
Vfukai
p1208
sVHeadImgUrl
p1209
V/cgi-bin/mmwebwx-bin/webwxgeticon?seq=632374287&username=@514e877e480c0e1c8058aecf9aa75d0f&skey=@crypt_9fe8734c_86fe8e39d9196b957da5836cfda1b519
p1210
sVKeyWord
p1211
Vfuk
p1212
sVProvince
p1213
V\u5e7f\u4e1c
p1214
sVPYInitial
p1215
VOHH
p1216
sVRemarkName
p1217
V\u4ed8\u51ef
p1218
sVIsOwner
p1219
I0
sVSex
p1220
I1
sVStarFriend
p1221
I0
sVHideInputBarFlag
p1222
I0
sVChatRoomId
p1223
I0
sVEncryChatRoomId
p1224
g43
sVAttrStatus
p1225
I110695
sVStatues
p1226
I0
stp1227
Rp1228
I1
bag25
(g29
g30
(dp1229
VUserName
p1230
V@046836b89096d8f67fd716f3c1caf2178fd22940cbe6599084c712770fe033a2
p1231
sVCity
p1232
V\u4e09\u660e
p1233
sVSnsFlag
p1234
I17
sVDisplayName
p1235
g43
sVUniFriend
p1236
I0
sVMemberCount
p1237
I0
sVOwnerUin
p1238
I0
sVMemberList
p1239
g41
sVAlias
p1240
g43
sVPYQuanPin
p1241
Vhaohaochie
p1242
sVSignature
p1243
Vhot\uff0chot\uff0chot
p1244
sVRemarkPYInitial
p1245
VXWF
p1246
sVContactFlag
p1247
I65539
sVUin
p1248
I0
sVNickName
p1249
V\u597d\u597d\u5403\u54e6
p1250
sVAppAccountFlag
p1251
I0
sVVerifyFlag
p1252
I0
sVRemarkPYQuanPin
p1253
Vxieweifang
p1254
sVHeadImgUrl
p1255
V/cgi-bin/mmwebwx-bin/webwxgeticon?seq=668414789&username=@046836b89096d8f67fd716f3c1caf2178fd22940cbe6599084c712770fe033a2&skey=@crypt_9fe8734c_86fe8e39d9196b957da5836cfda1b519
p1256
sVKeyWord
p1257
g43
sVProvince
p1258
V\u798f\u5efa
p1259
sVPYInitial
p1260
VHHCE
p1261
sVRemarkName
p1262
V\u8c22\u4f1f\u82b3
p1263
sVIsOwner
p1264
I0
sVSex
p1265
I2
sVStarFriend
p1266
I0
sVHideInputBarFlag
p1267
I0
sVChatRoomId
p1268
I0
sVEncryChatRoomId
p1269
g43
sVAttrStatus
p1270
I102497
sVStatues
p1271
I0
stp1272
Rp1273
I1
bag25
(g29
g30
(dp1274
VUserName
p1275
V@3a39ecc498ba15480c91788a5559b5ad5f79e59d0b87aacc7963e00bdcba20eb
p1276
sVCity
p1277
V\u53a6\u95e8
p1278
sVSnsFlag
p1279
I1
sVDisplayName
p1280
g43
sVUniFriend
p1281
I0
sVMemberCount
p1282
I0
sVOwnerUin
p1283
I0
sVMemberList
p1284
g41
sVAlias
p1285
g43
sVPYQuanPin
p1286
Vluoxin
p1287
sVSignature
p1288
g43
sVRemarkPYInitial
p1289
g43
sVContactFlag
p1290
I3
sVUin
p1291
I0
sVNickName
p1292
V\u9a86\u6b23
p1293
sVAppAccountFlag
p1294
I0
sVVerifyFlag
p1295
I0
sVRemarkPYQuanPin
p1296
g43
sVHeadImgUrl
p1297
V/cgi-bin/mmwebwx-bin/webwxgeticon?seq=661563696&username=@3a39ecc498ba15480c91788a5559b5ad5f79e59d0b87aacc7963e00bdcba20eb&skey=@crypt_9fe8734c_86fe8e39d9196b957da5836cfda1b519
p1298
sVKeyWord
p1299
g43
sVProvince
p1300
V\u798f\u5efa
p1301
sVPYInitial
p1302
VLX
p1303
sVRemarkName
p1304
g43
sVIsOwner
p1305
I0
sVSex
p1306
I1
sVStarFriend
p1307
I0
sVHideInputBarFlag
p1308
I0
sVChatRoomId
p1309
I0
sVEncryChatRoomId
p1310
g43
sVAttrStatus
p1311
I102437
sVStatues
p1312
I0
stp1313
Rp1314
I1
bag25
(g29
g30
(dp1315
VUserName
p1316
V@06bf3e7c9345659756cc721338b14c15c90ba99752dc6052abec70ee85406cf8
p1317
sVCity
p1318
V\u5357\u660c
p1319
sVSnsFlag
p1320
I17
sVDisplayName
p1321
g43
sVUniFriend
p1322
I0
sVMemberCount
p1323
I0
sVOwnerUin
p1324
I0
sVMemberList
p1325
g41
sVAlias
p1326
g43
sVPYQuanPin
p1327
Vliufengjian
p1328
sVSignature
p1329
g43
sVRemarkPYInitial
p1330
VXJP
p1331
sVContactFlag
p1332
I1
sVUin
p1333
I0
sVNickName
p1334
V\u6d41\u98ce\u5251
p1335
sVAppAccountFlag
p1336
I0
sVVerifyFlag
p1337
I0
sVRemarkPYQuanPin
p1338
Vxiejinpeng
p1339
sVHeadImgUrl
p1340
V/cgi-bin/mmwebwx-bin/webwxgeticon?seq=668418172&username=@06bf3e7c9345659756cc721338b14c15c90ba99752dc6052abec70ee85406cf8&skey=@crypt_9fe8734c_86fe8e39d9196b957da5836cfda1b519
p1341
sVKeyWord
p1342
g43
sVProvince
p1343
V\u6c5f\u897f
p1344
sVPYInitial
p1345
VLFJ
p1346
sVRemarkName
p1347
V\u8c22\u91d1\u9e4f
p1348
sVIsOwner
p1349
I0
sVSex
p1350
I1
sVStarFriend
p1351
I0
sVHideInputBarFlag
p1352
I0
sVChatRoomId
p1353
I0
sVEncryChatRoomId
p1354
g43
sVAttrStatus
p1355
L2147487845L
sVStatues
p1356
I0
stp1357
Rp1358
I1
bag25
(g29
g30
(dp1359
VUserName
p1360
V@66faff2a85f5a4f2dec33c8cacbc16bd
p1361
sVCity
p1362
V\u671d\u9633
p1363
sVSnsFlag
p1364
I17
sVDisplayName
p1365
g43
sVUniFriend
p1366
I0
sVMemberCount
p1367
I0
sVOwnerUin
p1368
I0
sVMemberList
p1369
g41
sVAlias
p1370
g43
sVPYQuanPin
p1371
g43
sVSignature
p1372
V\u73ab\u7470\u5373\u73ab\u7470\uff0c\u82b1\u9999\u65e0\u610f\u4e49
p1373
sVRemarkPYInitial
p1374
VLJJ
p1375
sVContactFlag
p1376
I3
sVUin
p1377
I0
sVNickName
p1378
V\u3000
p1379
sVAppAccountFlag
p1380
I0
sVVerifyFlag
p1381
I0
sVRemarkPYQuanPin
p1382
Vluojunjiang
p1383
sVHeadImgUrl
p1384
V/cgi-bin/mmwebwx-bin/webwxgeticon?seq=644011202&username=@66faff2a85f5a4f2dec33c8cacbc16bd&skey=@crypt_9fe8734c_86fe8e39d9196b957da5836cfda1b519
p1385
sVKeyWord
p1386
Vnly
p1387
sVProvince
p1388
V\u5317\u4eac
p1389
sVPYInitial
p1390
g43
sVRemarkName
p1391
V\u9a86\u4fca\u5c06
p1392
sVIsOwner
p1393
I0
sVSex
p1394
I1
sVStarFriend
p1395
I0
sVHideInputBarFlag
p1396
I0
sVChatRoomId
p1397
I0
sVEncryChatRoomId
p1398
g43
sVAttrStatus
p1399
I16978815
sVStatues
p1400
I0
stp1401
Rp1402
I1
bag25
(g29
g30
(dp1403
VUserName
p1404
V@9d92cd9c8a86db63b364cb8b057629d7
p1405
sVCity
p1406
V\u6cc9\u5dde
p1407
sVSnsFlag
p1408
I17
sVDisplayName
p1409
g43
sVUniFriend
p1410
I0
sVMemberCount
p1411
I0
sVOwnerUin
p1412
I0
sVMemberList
p1413
g41
sVAlias
p1414
g43
sVPYQuanPin
p1415
Vbin
p1416
sVSignature
p1417
VMemory is the scribe of the soul.
p1418
sVRemarkPYInitial
p1419
VZJB
p1420
sVContactFlag
p1421
I3
sVUin
p1422
I0
sVNickName
p1423
V\uff20\u300e\u658c\u300d
p1424
sVAppAccountFlag
p1425
I0
sVVerifyFlag
p1426
I0
sVRemarkPYQuanPin
p1427
Vzhengjianbin
p1428
sVHeadImgUrl
p1429
V/cgi-bin/mmwebwx-bin/webwxgeticon?seq=648482275&username=@9d92cd9c8a86db63b364cb8b057629d7&skey=@crypt_9fe8734c_86fe8e39d9196b957da5836cfda1b519
p1430
sVKeyWord
p1431
Vzhe
p1432
sVProvince
p1433
V\u798f\u5efa
p1434
sVPYInitial
p1435
VB
p1436
sVRemarkName
p1437
V\u90d1\u5efa\u658c
p1438
sVIsOwner
p1439
I0
sVSex
p1440
I1
sVStarFriend
p1441
I0
sVHideInputBarFlag
p1442
I0
sVChatRoomId
p1443
I0
sVEncryChatRoomId
p1444
g43
sVAttrStatus
p1445
I103527
sVStatues
p1446
I0
stp1447
Rp1448
I1
bag25
(g29
g30
(dp1449
VUserName
p1450
V@44d2493ca2e2669019474ef29730efc4eac759e1248c22f8c9794a7a118f8736
p1451
sVCity
p1452
V\u664b\u4e2d
p1453
sVSnsFlag
p1454
I17
sVDisplayName
p1455
g43
sVUniFriend
p1456
I0
sVMemberCount
p1457
I0
sVOwnerUin
p1458
I0
sVMemberList
p1459
g41
sVAlias
p1460
g43
sVPYQuanPin
p1461
Vxiaohuozi
p1462
sVSignature
p1463
V\u52c7\u6562\u524d\u884c\uff0c\u62e5\u62b1\u672a\u6765
p1464
sVRemarkPYInitial
p1465
VZW
p1466
sVContactFlag
p1467
I3
sVUin
p1468
I0
sVNickName
p1469
V\u5c0f\u4f19\u5b50
p1470
sVAppAccountFlag
p1471
I0
sVVerifyFlag
p1472
I0
sVRemarkPYQuanPin
p1473
Vzengwei
p1474
sVHeadImgUrl
p1475
V/cgi-bin/mmwebwx-bin/webwxgeticon?seq=668418142&username=@44d2493ca2e2669019474ef29730efc4eac759e1248c22f8c9794a7a118f8736&skey=@crypt_9fe8734c_86fe8e39d9196b957da5836cfda1b519
p1476
sVKeyWord
p1477
g43
sVProvince
p1478
V\u5c71\u897f
p1479
sVPYInitial
p1480
VXHZ
p1481
sVRemarkName
p1482
V\u66fe\u4f1f
p1483
sVIsOwner
p1484
I0
sVSex
p1485
I1
sVStarFriend
p1486
I0
sVHideInputBarFlag
p1487
I0
sVChatRoomId
p1488
I0
sVEncryChatRoomId
p1489
g43
sVAttrStatus
p1490
I4199
sVStatues
p1491
I0
stp1492
Rp1493
I1
bag25
(g29
g30
(dp1494
VUserName
p1495
V@2bd4949fe2d150853eda4a9f438a9d065e2d0eca7ca0af069e88b4c0f94c2200
p1496
sVCity
p1497
g43
sVSnsFlag
p1498
I17
sVDisplayName
p1499
g43
sVUniFriend
p1500
I0
sVMemberCount
p1501
I0
sVOwnerUin
p1502
I0
sVMemberList
p1503
g41
sVAlias
p1504
g43
sVPYQuanPin
p1505
Vvictoriaspanclassemojiemoji1f60aspanBNU
p1506
sVSignature
p1507
V\u6b32\u6234\u7687\u51a0\u5fc5\u5148\u627f\u5176\u91cd
p1508
sVRemarkPYInitial
p1509
g43
sVContactFlag
p1510
I3
sVUin
p1511
I0
sVNickName
p1512
Vvictoria~\U0001f60aBNU
p1513
sVAppAccountFlag
p1514
I0
sVVerifyFlag
p1515
I0
sVRemarkPYQuanPin
p1516
g43
sVHeadImgUrl
p1517
V/cgi-bin/mmwebwx-bin/webwxgeticon?seq=664955885&username=@2bd4949fe2d150853eda4a9f438a9d065e2d0eca7ca0af069e88b4c0f94c2200&skey=@crypt_9fe8734c_86fe8e39d9196b957da5836cfda1b519
p1518
sVKeyWord
p1519
g43
sVProvince
p1520
g43
sVPYInitial
p1521
VVICTORIASPANCLASSEMOJIEMOJI1F60ASPANBNU
p1522
sVRemarkName
p1523
g43
sVIsOwner
p1524
I0
sVSex
p1525
I2
sVStarFriend
p1526
I0
sVHideInputBarFlag
p1527
I0
sVChatRoomId
p1528
I0
sVEncryChatRoomId
p1529
g43
sVAttrStatus
p1530
I4197
sVStatues
p1531
I0
stp1532
Rp1533
I1
bag25
(g29
g30
(dp1534
VUserName
p1535
V@2c30eea789542bf586e88eb0118cd06d7f0f8dd70f840f48db83657c7d076840
p1536
sVCity
p1537
g43
sVSnsFlag
p1538
I49
sVDisplayName
p1539
g43
sVUniFriend
p1540
I0
sVMemberCount
p1541
I0
sVOwnerUin
p1542
I0
sVMemberList
p1543
g41
sVAlias
p1544
g43
sVPYQuanPin
p1545
Vzouliangying
p1546
sVSignature
p1547
V\u81ea\u5c0a\uff0c\u81ea\u91cd\uff0c\u81ea\u7231\uff0c\u81ea\u5f3a\uff0c\u6c38\u8fdc\u505a\u751f\u6d3b\u4e0a\u7684\u5f37\u8005\u3002\u3002'\u4e00
p1548
sVRemarkPYInitial
p1549
VGP
p1550
sVContactFlag
p1551
I3
sVUin
p1552
I0
sVNickName
p1553
V\u90b9\u826f\u82f1
p1554
sVAppAccountFlag
p1555
I0
sVVerifyFlag
p1556
I0
sVRemarkPYQuanPin
p1557
Vgupo
p1558
sVHeadImgUrl
p1559
V/cgi-bin/mmwebwx-bin/webwxgeticon?seq=664955792&username=@2c30eea789542bf586e88eb0118cd06d7f0f8dd70f840f48db83657c7d076840&skey=@crypt_9fe8734c_86fe8e39d9196b957da5836cfda1b519
p1560
sVKeyWord
p1561
g43
sVProvince
p1562
g43
sVPYInitial
p1563
VZLY
p1564
sVRemarkName
p1565
V\u59d1\u5a46
p1566
sVIsOwner
p1567
I0
sVSex
p1568
I2
sVStarFriend
p1569
I0
sVHideInputBarFlag
p1570
I0
sVChatRoomId
p1571
I0
sVEncryChatRoomId
p1572
g43
sVAttrStatus
p1573
I69669
sVStatues
p1574
I0
stp1575
Rp1576
I1
bag25
(g29
g30
(dp1577
VUserName
p1578
V@3de41be2c88972ac0fd68e21bbb11b31692105ee73d03986b69da26234532053
p1579
sVCity
p1580
V\u5357\u660c
p1581
sVSnsFlag
p1582
I1
sVDisplayName
p1583
g43
sVUniFriend
p1584
I0
sVMemberCount
p1585
I0
sVOwnerUin
p1586
I0
sVMemberList
p1587
g41
sVAlias
p1588
g43
sVPYQuanPin
p1589
Vnireanhaobianshiqingtian
p1590
sVSignature
p1591
V\u4e00\u82b1\u4e00\u4e16\u754c\uff0c\u4e00\u4e16\u4e00\u53cc\u4eba
p1592
sVRemarkPYInitial
p1593
VGJY
p1594
sVContactFlag
p1595
I3
sVUin
p1596
I0
sVNickName
p1597
V\u4f60\u82e5\u5b89\u597d\uff0c\u4fbf\u662f\u6674\u5929
p1598
sVAppAccountFlag
p1599
I0
sVVerifyFlag
p1600
I0
sVRemarkPYQuanPin
p1601
Vganjiayun
p1602
sVHeadImgUrl
p1603
V/cgi-bin/mmwebwx-bin/webwxgeticon?seq=664949769&username=@3de41be2c88972ac0fd68e21bbb11b31692105ee73d03986b69da26234532053&skey=@crypt_9fe8734c_86fe8e39d9196b957da5836cfda1b519
p1604
sVKeyWord
p1605
g43
sVProvince
p1606
V\u6c5f\u897f
p1607
sVPYInitial
p1608
VNRAHBSQT
p1609
sVRemarkName
p1610
V\u7518\u5609\u4e91
p1611
sVIsOwner
p1612
I0
sVSex
p1613
I2
sVStarFriend
p1614
I0
sVHideInputBarFlag
p1615
I0
sVChatRoomId
p1616
I0
sVEncryChatRoomId
p1617
g43
sVAttrStatus
p1618
I102589
sVStatues
p1619
I0
stp1620
Rp1621
I1
bag25
(g29
g30
(dp1622
VUserName
p1623
V@781873ca5437decf00373b56f25d716b
p1624
sVCity
p1625
V\u5510\u5c71
p1626
sVSnsFlag
p1627
I17
sVDisplayName
p1628
g43
sVUniFriend
p1629
I0
sVMemberCount
p1630
I0
sVOwnerUin
p1631
I0
sVMemberList
p1632
g41
sVAlias
p1633
g43
sVPYQuanPin
p1634
Vbin
p1635
sVSignature
p1636
VOf all ruins, that of a fine man is the saddest.
p1637
sVRemarkPYInitial
p1638
VHB
p1639
sVContactFlag
p1640
I8195
sVUin
p1641
I0
sVNickName
p1642
V*\u5f6c
p1643
sVAppAccountFlag
p1644
I0
sVVerifyFlag
p1645
I0
sVRemarkPYQuanPin
p1646
Vhebin
p1647
sVHeadImgUrl
p1648
V/cgi-bin/mmwebwx-bin/webwxgeticon?seq=648515114&username=@781873ca5437decf00373b56f25d716b&skey=@crypt_9fe8734c_86fe8e39d9196b957da5836cfda1b519
p1649
sVKeyWord
p1650
VQ98
p1651
sVProvince
p1652
V\u6cb3\u5317
p1653
sVPYInitial
p1654
g1436
sVRemarkName
p1655
V\u4f55\u5f6c
p1656
sVIsOwner
p1657
I0
sVSex
p1658
I1
sVStarFriend
p1659
I0
sVHideInputBarFlag
p1660
I0
sVChatRoomId
p1661
I0
sVEncryChatRoomId
p1662
g43
sVAttrStatus
p1663
I16880063
sVStatues
p1664
I0
stp1665
Rp1666
I1
bag25
(g29
g30
(dp1667
VUserName
p1668
V@f9b3b280c606b48b7f95456d10cc8d8d7cadfef4d5959b1eb0b857367092ee42
p1669
sVCity
p1670
V\u66f2\u9756
p1671
sVSnsFlag
p1672
I17
sVDisplayName
p1673
g43
sVUniFriend
p1674
I0
sVMemberCount
p1675
I0
sVOwnerUin
p1676
I0
sVMemberList
p1677
g41
sVAlias
p1678
g43
sVPYQuanPin
p1679
Vdainiu
p1680
sVSignature
p1681
VGod bless you
p1682
sVRemarkPYInitial
p1683
VDYF
p1684
sVContactFlag
p1685
I1
sVUin
p1686
I0
sVNickName
p1687
V\u4ee3\u725b
p1688
sVAppAccountFlag
p1689
I0
sVVerifyFlag
p1690
I0
sVRemarkPYQuanPin
p1691
Vdaiyufang
p1692
sVHeadImgUrl
p1693
V/cgi-bin/mmwebwx-bin/webwxgeticon?seq=668420897&username=@f9b3b280c606b48b7f95456d10cc8d8d7cadfef4d5959b1eb0b857367092ee42&skey=@crypt_9fe8734c_86fe8e39d9196b957da5836cfda1b519
p1694
sVKeyWord
p1695
g43
sVProvince
p1696
V\u4e91\u5357
p1697
sVPYInitial
p1698
VDN
p1699
sVRemarkName
p1700
V\u4ee3\u6bd3\u82b3
p1701
sVIsOwner
p1702
I0
sVSex
p1703
I2
sVStarFriend
p1704
I0
sVHideInputBarFlag
p1705
I0
sVChatRoomId
p1706
I0
sVEncryChatRoomId
p1707
g43
sVAttrStatus
p1708
I4199
sVStatues
p1709
I0
stp1710
Rp1711
I1
bag25
(g29
g30
(dp1712
VUserName
p1713
V@b1191e9c891d900f2bd6a860ceccef85ba6b48d15382a5f5c675e6614d241342
p1714
sVCity
p1715
g43
sVSnsFlag
p1716
I17
sVDisplayName
p1717
g43
sVUniFriend
p1718
I0
sVMemberCount
p1719
I0
sVOwnerUin
p1720
I0
sVMemberList
p1721
g41
sVAlias
p1722
g43
sVPYQuanPin
p1723
Vwenpeiqi
p1724
sVSignature
p1725
V\u63a7\u5236\u81ea\u5df1\u638c\u63a7\u654c\u4eba
p1726
sVRemarkPYInitial
p1727
VWPQ
p1728
sVContactFlag
p1729
I3
sVUin
p1730
I0
sVNickName
p1731
V\u6587\u6c9b\u797a
p1732
sVAppAccountFlag
p1733
I0
sVVerifyFlag
p1734
I0
sVRemarkPYQuanPin
p1735
Vwenpeiqi
p1736
sVHeadImgUrl
p1737
V/cgi-bin/mmwebwx-bin/webwxgeticon?seq=668414339&username=@b1191e9c891d900f2bd6a860ceccef85ba6b48d15382a5f5c675e6614d241342&skey=@crypt_9fe8734c_86fe8e39d9196b957da5836cfda1b519
p1738
sVKeyWord
p1739
g43
sVProvince
p1740
g43
sVPYInitial
p1741
VWPQ
p1742
sVRemarkName
p1743
V\u6587\u6c9b\u742a
p1744
sVIsOwner
p1745
I0
sVSex
p1746
I1
sVStarFriend
p1747
I0
sVHideInputBarFlag
p1748
I0
sVChatRoomId
p1749
I0
sVEncryChatRoomId
p1750
g43
sVAttrStatus
p1751
I76001
sVStatues
p1752
I0
stp1753
Rp1754
I1
bag25
(g29
g30
(dp1755
VUserName
p1756
V@3f58e7069f08d93cf13c1aacaf9c0006614f6d71d2b7375f01b5fe1eef1139b6
p1757
sVCity
p1758
V\u5b9c\u6625
p1759
sVSnsFlag
p1760
I17
sVDisplayName
p1761
g43
sVUniFriend
p1762
I0
sVMemberCount
p1763
I0
sVOwnerUin
p1764
I0
sVMemberList
p1765
g41
sVAlias
p1766
g43
sVPYQuanPin
p1767
Vdaofei
p1768
sVSignature
p1769
V\u4e0d\u671f\u800c\u9047\u7684\u6e29\u6696\uff0c\u751f\u751f\u4e0d\u606f\u7684\u5e0c\u671b!
p1770
sVRemarkPYInitial
p1771
g43
sVContactFlag
p1772
I3
sVUin
p1773
I0
sVNickName
p1774
V\u9053\u98de
p1775
sVAppAccountFlag
p1776
I0
sVVerifyFlag
p1777
I0
sVRemarkPYQuanPin
p1778
g43
sVHeadImgUrl
p1779
V/cgi-bin/mmwebwx-bin/webwxgeticon?seq=668419749&username=@3f58e7069f08d93cf13c1aacaf9c0006614f6d71d2b7375f01b5fe1eef1139b6&skey=@crypt_9fe8734c_86fe8e39d9196b957da5836cfda1b519
p1780
sVKeyWord
p1781
g43
sVProvince
p1782
V\u6c5f\u897f
p1783
sVPYInitial
p1784
VDF
p1785
sVRemarkName
p1786
g43
sVIsOwner
p1787
I0
sVSex
p1788
I1
sVStarFriend
p1789
I0
sVHideInputBarFlag
p1790
I0
sVChatRoomId
p1791
I0
sVEncryChatRoomId
p1792
g43
sVAttrStatus
p1793
I4197
sVStatues
p1794
I0
stp1795
Rp1796
I1
bag25
(g29
g30
(dp1797
VUserName
p1798
V@41ddc3f4fba66b3b24448a84bed5e83b
p1799
sVCity
p1800
V\u6b66\u6c49
p1801
sVSnsFlag
p1802
I17
sVDisplayName
p1803
g43
sVUniFriend
p1804
I0
sVMemberCount
p1805
I0
sVOwnerUin
p1806
I0
sVMemberList
p1807
g41
sVAlias
p1808
g43
sVPYQuanPin
p1809
VyiLAN
p1810
sVSignature
p1811
g43
sVRemarkPYInitial
p1812
VZY
p1813
sVContactFlag
p1814
I3
sVUin
p1815
I0
sVNickName
p1816
VyiLAN
p1817
sVAppAccountFlag
p1818
I0
sVVerifyFlag
p1819
I0
sVRemarkPYQuanPin
p1820
Vzhengyang
p1821
sVHeadImgUrl
p1822
V/cgi-bin/mmwebwx-bin/webwxgeticon?seq=648503669&username=@41ddc3f4fba66b3b24448a84bed5e83b&skey=@crypt_9fe8734c_86fe8e39d9196b957da5836cfda1b519
p1823
sVKeyWord
p1824
Vzhe
p1825
sVProvince
p1826
V\u6e56\u5317
p1827
sVPYInitial
p1828
VYILAN
p1829
sVRemarkName
p1830
V\u90d1\u6d0b
p1831
sVIsOwner
p1832
I0
sVSex
p1833
I1
sVStarFriend
p1834
I0
sVHideInputBarFlag
p1835
I0
sVChatRoomId
p1836
I0
sVEncryChatRoomId
p1837
g43
sVAttrStatus
p1838
I5055
sVStatues
p1839
I0
stp1840
Rp1841
I1
bag25
(g29
g30
(dp1842
VUserName
p1843
V@98fc17138c298226dad188aa18c45237
p1844
sVCity
p1845
V\u6c5f\u95e8
p1846
sVSnsFlag
p1847
I49
sVDisplayName
p1848
g43
sVUniFriend
p1849
I0
sVMemberCount
p1850
I0
sVOwnerUin
p1851
I0
sVMemberList
p1852
g41
sVAlias
p1853
g43
sVPYQuanPin
p1854
Vlongfengjuzhouzhiping
p1855
sVSignature
p1856
g43
sVRemarkPYInitial
p1857
VZZP
p1858
sVContactFlag
p1859
I3
sVUin
p1860
I0
sVNickName
p1861
V\u9f99\u51e4\u5c45 \u5468\u5fd7\u5e73
p1862
sVAppAccountFlag
p1863
I0
sVVerifyFlag
p1864
I0
sVRemarkPYQuanPin
p1865
Vzhouzhiping
p1866
sVHeadImgUrl
p1867
V/cgi-bin/mmwebwx-bin/webwxgeticon?seq=648511162&username=@98fc17138c298226dad188aa18c45237&skey=@crypt_9fe8734c_86fe8e39d9196b957da5836cfda1b519
p1868
sVKeyWord
p1869
Vzho
p1870
sVProvince
p1871
V\u5e7f\u4e1c
p1872
sVPYInitial
p1873
VLFJZZP
p1874
sVRemarkName
p1875
V\u5468\u5fd7\u5e73
p1876
sVIsOwner
p1877
I0
sVSex
p1878
I1
sVStarFriend
p1879
I0
sVHideInputBarFlag
p1880
I0
sVChatRoomId
p1881
I0
sVEncryChatRoomId
p1882
g43
sVAttrStatus
p1883
L2147612775L
sVStatues
p1884
I0
stp1885
Rp1886
I1
bag25
(g29
g30
(dp1887
VUserName
p1888
V@1648000e64cae0e3e5d2cc837afbd05e8f147180284117af6ec650b0f523e01c
p1889
sVCity
p1890
V\u5357\u660c
p1891
sVSnsFlag
p1892
I17
sVDisplayName
p1893
g43
sVUniFriend
p1894
I0
sVMemberCount
p1895
I0
sVOwnerUin
p1896
I0
sVMemberList
p1897
g41
sVAlias
p1898
g43
sVPYQuanPin
p1899
Vxingxin
p1900
sVSignature
p1901
V\u8f6c\u5c71 \u8f6c\u6c34 \u8f6c\u4f5b\u5854
p1902
sVRemarkPYInitial
p1903
VYCX
p1904
sVContactFlag
p1905
I3
sVUin
p1906
I0
sVNickName
p1907
V\u661f\u65b0
p1908
sVAppAccountFlag
p1909
I0
sVVerifyFlag
p1910
I0
sVRemarkPYQuanPin
p1911
Vyangchangxing
p1912
sVHeadImgUrl
p1913
V/cgi-bin/mmwebwx-bin/webwxgeticon?seq=635222217&username=@1648000e64cae0e3e5d2cc837afbd05e8f147180284117af6ec650b0f523e01c&skey=@crypt_9fe8734c_86fe8e39d9196b957da5836cfda1b519
p1914
sVKeyWord
p1915
g43
sVProvince
p1916
V\u6c5f\u897f
p1917
sVPYInitial
p1918
VXX
p1919
sVRemarkName
p1920
V\u6768\u660c\u661f
p1921
sVIsOwner
p1922
I0
sVSex
p1923
I1
sVStarFriend
p1924
I0
sVHideInputBarFlag
p1925
I0
sVChatRoomId
p1926
I0
sVEncryChatRoomId
p1927
g43
sVAttrStatus
p1928
I4129
sVStatues
p1929
I0
stp1930
Rp1931
I1
bag25
(g29
g30
(dp1932
VUserName
p1933
V@5a2cde3c83b3b0ff2ea0c910cc752b16fc804516186040e83a104572f413093f
p1934
sVCity
p1935
g43
sVSnsFlag
p1936
I17
sVDisplayName
p1937
g43
sVUniFriend
p1938
I0
sVMemberCount
p1939
I0
sVOwnerUin
p1940
I0
sVMemberList
p1941
g41
sVAlias
p1942
g43
sVPYQuanPin
p1943
Vfun
p1944
sVSignature
p1945
V\u4e00\u8def\u5411\u524d
p1946
sVRemarkPYInitial
p1947
VFYL
p1948
sVContactFlag
p1949
I3
sVUin
p1950
I0
sVNickName
p1951
Vfun
p1952
sVAppAccountFlag
p1953
I0
sVVerifyFlag
p1954
I0
sVRemarkPYQuanPin
p1955
Vfanyulin
p1956
sVHeadImgUrl
p1957
V/cgi-bin/mmwebwx-bin/webwxgeticon?seq=661562371&username=@5a2cde3c83b3b0ff2ea0c910cc752b16fc804516186040e83a104572f413093f&skey=@crypt_9fe8734c_86fe8e39d9196b957da5836cfda1b519
p1958
sVKeyWord
p1959
g43
sVProvince
p1960
g43
sVPYInitial
p1961
VFUN
p1962
sVRemarkName
p1963
V\u8303\u96e8\u6797
p1964
sVIsOwner
p1965
I0
sVSex
p1966
I1
sVStarFriend
p1967
I0
sVHideInputBarFlag
p1968
I0
sVChatRoomId
p1969
I0
sVEncryChatRoomId
p1970
g43
sVAttrStatus
p1971
I102437
sVStatues
p1972
I0
stp1973
Rp1974
I1
bag25
(g29
g30
(dp1975
VUserName
p1976
V@40c455db71befdb377a0d5f4ab190258
p1977
sVCity
p1978
g43
sVSnsFlag
p1979
I17
sVDisplayName
p1980
g43
sVUniFriend
p1981
I0
sVMemberCount
p1982
I0
sVOwnerUin
p1983
I0
sVMemberList
p1984
g41
sVAlias
p1985
g43
sVPYQuanPin
p1986
Vamujiushiwo
p1987
sVSignature
p1988
V\u5927\u5934\u5927\u5934\u4e0b\u96e8\u4e0d\u6101\uff0c\u4eba\u5bb6\u6ca1\u4f1e\uff0c\u6211\u4e5f\u6709\u4f1e\U0001f923
p1989
sVRemarkPYInitial
p1990
VMDH
p1991
sVContactFlag
p1992
I3
sVUin
p1993
I0
sVNickName
p1994
V\u963f\u6bcd\u5c31\u662f\u6211
p1995
sVAppAccountFlag
p1996
I0
sVVerifyFlag
p1997
I0
sVRemarkPYQuanPin
p1998
Vmudanhong
p1999
sVHeadImgUrl
p2000
V/cgi-bin/mmwebwx-bin/webwxgeticon?seq=668422229&username=@40c455db71befdb377a0d5f4ab190258&skey=@crypt_9fe8734c_86fe8e39d9196b957da5836cfda1b519
p2001
sVKeyWord
p2002
Vmdh
p2003
sVProvince
p2004
g43
sVPYInitial
p2005
VAMJSW
p2006
sVRemarkName
p2007
V\u6bcd\u4e39\u7ea2
p2008
sVIsOwner
p2009
I0
sVSex
p2010
I2
sVStarFriend
p2011
I0
sVHideInputBarFlag
p2012
I0
sVChatRoomId
p2013
I0
sVEncryChatRoomId
p2014
g43
sVAttrStatus
p2015
I107391
sVStatues
p2016
I0
stp2017
Rp2018
I1
bag25
(g29
g30
(dp2019
VUserName
p2020
V@f6fb4de90e65e7199c203885d554c1f1d9d0536a17cf3250b97f4d0fb686ea4f
p2021
sVCity
p2022
V\u4e0a\u9976
p2023
sVSnsFlag
p2024
I17
sVDisplayName
p2025
g43
sVUniFriend
p2026
I0
sVMemberCount
p2027
I0
sVOwnerUin
p2028
I0
sVMemberList
p2029
g41
sVAlias
p2030
g43
sVPYQuanPin
p2031
Vzhangniankuan
p2032
sVSignature
p2033
V\u4e0d\u75af\u9b54\uff0c\u4e0d\u6210\u6d3b
p2034
sVRemarkPYInitial
p2035
g43
sVContactFlag
p2036
I3
sVUin
p2037
I0
sVNickName
p2038
V\u5f20\u5e74\u5bbd
p2039
sVAppAccountFlag
p2040
I0
sVVerifyFlag
p2041
I0
sVRemarkPYQuanPin
p2042
g43
sVHeadImgUrl
p2043
V/cgi-bin/mmwebwx-bin/webwxgeticon?seq=668422616&username=@f6fb4de90e65e7199c203885d554c1f1d9d0536a17cf3250b97f4d0fb686ea4f&skey=@crypt_9fe8734c_86fe8e39d9196b957da5836cfda1b519
p2044
sVKeyWord
p2045
g43
sVProvince
p2046
V\u6c5f\u897f
p2047
sVPYInitial
p2048
VZNK
p2049
sVRemarkName
p2050
g43
sVIsOwner
p2051
I0
sVSex
p2052
I1
sVStarFriend
p2053
I0
sVHideInputBarFlag
p2054
I0
sVChatRoomId
p2055
I0
sVEncryChatRoomId
p2056
g43
sVAttrStatus
p2057
I102437
sVStatues
p2058
I0
stp2059
Rp2060
I1
bag25
(g29
g30
(dp2061
VUserName
p2062
V@0f880e3ffd0d983f46b9de9355d9fe96fe4e9e1eb42bdf674bc473eceb40793c
p2063
sVCity
p2064
V\u671d\u9633
p2065
sVSnsFlag
p2066
I17
sVDisplayName
p2067
g43
sVUniFriend
p2068
I0
sVMemberCount
p2069
I0
sVOwnerUin
p2070
I0
sVMemberList
p2071
g41
sVAlias
p2072
g43
sVPYQuanPin
p2073
VJagnil
p2074
sVSignature
p2075
VForget to begin
p2076
sVRemarkPYInitial
p2077
VPK
p2078
sVContactFlag
p2079
I3
sVUin
p2080
I0
sVNickName
p2081
VJagnil
p2082
sVAppAccountFlag
p2083
I0
sVVerifyFlag
p2084
I0
sVRemarkPYQuanPin
p2085
Vpengkang
p2086
sVHeadImgUrl
p2087
V/cgi-bin/mmwebwx-bin/webwxgeticon?seq=668420969&username=@0f880e3ffd0d983f46b9de9355d9fe96fe4e9e1eb42bdf674bc473eceb40793c&skey=@crypt_9fe8734c_86fe8e39d9196b957da5836cfda1b519
p2088
sVKeyWord
p2089
g43
sVProvince
p2090
V\u5317\u4eac
p2091
sVPYInitial
p2092
VJAGNIL
p2093
sVRemarkName
p2094
V\u5f6d\u5eb7
p2095
sVIsOwner
p2096
I0
sVSex
p2097
I1
sVStarFriend
p2098
I0
sVHideInputBarFlag
p2099
I0
sVChatRoomId
p2100
I0
sVEncryChatRoomId
p2101
g43
sVAttrStatus
p2102
I229885
sVStatues
p2103
I0
stp2104
Rp2105
I1
bag25
(g29
g30
(dp2106
VUserName
p2107
V@88816e3debc38eaea3511e5234c7e16eae7b29b97ba96a8646014f90e18919f5
p2108
sVCity
p2109
g43
sVSnsFlag
p2110
I17
sVDisplayName
p2111
g43
sVUniFriend
p2112
I0
sVMemberCount
p2113
I0
sVOwnerUin
p2114
I0
sVMemberList
p2115
g41
sVAlias
p2116
g43
sVPYQuanPin
p2117
VSaya
p2118
sVSignature
p2119
V\u5fae\u7b11\u5411\u6696\uff0c\u5b89\u4e4b\u82e5\u7d20\u3002 \u4f60\u82e5\u76db\u5f00\uff0c\u6e05\u98ce\u81ea\u6765\u3002
p2120
sVRemarkPYInitial
p2121
VCLF
p2122
sVContactFlag
p2123
I3
sVUin
p2124
I0
sVNickName
p2125
VSaya
p2126
sVAppAccountFlag
p2127
I0
sVVerifyFlag
p2128
I0
sVRemarkPYQuanPin
p2129
Vchenlifeng
p2130
sVHeadImgUrl
p2131
V/cgi-bin/mmwebwx-bin/webwxgeticon?seq=664944762&username=@88816e3debc38eaea3511e5234c7e16eae7b29b97ba96a8646014f90e18919f5&skey=@crypt_9fe8734c_86fe8e39d9196b957da5836cfda1b519
p2132
sVKeyWord
p2133
g43
sVProvince
p2134
VParis
p2135
sVPYInitial
p2136
VSAYA
p2137
sVRemarkName
p2138
V\u9648\u4e3d\u67ab
p2139
sVIsOwner
p2140
I0
sVSex
p2141
I2
sVStarFriend
p2142
I0
sVHideInputBarFlag
p2143
I0
sVChatRoomId
p2144
I0
sVEncryChatRoomId
p2145
g43
sVAttrStatus
p2146
I102949
sVStatues
p2147
I0
stp2148
Rp2149
I1
bag25
(g29
g30
(dp2150
VUserName
p2151
V@2a7fcf4864e121163300b4d2a049cc98ecf47593aff7a975770be239687c614c
p2152
sVCity
p2153
V\u60e0\u5dde
p2154
sVSnsFlag
p2155
I17
sVDisplayName
p2156
g43
sVUniFriend
p2157
I0
sVMemberCount
p2158
I0
sVOwnerUin
p2159
I0
sVMemberList
p2160
g41
sVAlias
p2161
g43
sVPYQuanPin
p2162
VanjingdeJ
p2163
sVSignature
p2164
V\u4e1a\u7cbe\u4e8e\u52e4\u8352\u4e8e\u5b09\uff0c\u884c\u6210\u4e8e\u601d\u6bc1\u4e8e\u968f
p2165
sVRemarkPYInitial
p2166
VZH
p2167
sVContactFlag
p2168
I3
sVUin
p2169
I0
sVNickName
p2170
V\u5b89\u9759\u7684J
p2171
sVAppAccountFlag
p2172
I0
sVVerifyFlag
p2173
I0
sVRemarkPYQuanPin
p2174
Vzhanghao
p2175
sVHeadImgUrl
p2176
V/cgi-bin/mmwebwx-bin/webwxgeticon?seq=627740221&username=@2a7fcf4864e121163300b4d2a049cc98ecf47593aff7a975770be239687c614c&skey=@crypt_9fe8734c_86fe8e39d9196b957da5836cfda1b519
p2177
sVKeyWord
p2178
g43
sVProvince
p2179
V\u5e7f\u4e1c
p2180
sVPYInitial
p2181
VAJDJ
p2182
sVRemarkName
p2183
V\u5f20\u6d69
p2184
sVIsOwner
p2185
I0
sVSex
p2186
I1
sVStarFriend
p2187
I0
sVHideInputBarFlag
p2188
I0
sVChatRoomId
p2189
I0
sVEncryChatRoomId
p2190
g43
sVAttrStatus
p2191
I102973
sVStatues
p2192
I0
stp2193
Rp2194
I1
bag25
(g29
g30
(dp2195
VUserName
p2196
V@7d5f703fbf4d0f9ee8c040003eaab673
p2197
sVCity
p2198
g43
sVSnsFlag
p2199
I49
sVDisplayName
p2200
g43
sVUniFriend
p2201
I0
sVMemberCount
p2202
I0
sVOwnerUin
p2203
I0
sVMemberList
p2204
g41
sVAlias
p2205
g43
sVPYQuanPin
p2206
VWwwjingjingshigedadaoyan
p2207
sVSignature
p2208
V\u8ffd
p2209
sVRemarkPYInitial
p2210
VJD
p2211
sVContactFlag
p2212
I3
sVUin
p2213
I0
sVNickName
p2214
VWww\u6676\u6676\u662f\u4e2a\u5927\u5bfc\u6f14
p2215
sVAppAccountFlag
p2216
I0
sVVerifyFlag
p2217
I0
sVRemarkPYQuanPin
p2218
Vjingdao
p2219
sVHeadImgUrl
p2220
V/cgi-bin/mmwebwx-bin/webwxgeticon?seq=668420655&username=@7d5f703fbf4d0f9ee8c040003eaab673&skey=@crypt_9fe8734c_86fe8e39d9196b957da5836cfda1b519
p2221
sVKeyWord
p2222
Vw84
p2223
sVProvince
p2224
g43
sVPYInitial
p2225
VWWWJJSGDDY
p2226
sVRemarkName
p2227
V\u6676\u5bfc
p2228
sVIsOwner
p2229
I0
sVSex
p2230
I1
sVStarFriend
p2231
I0
sVHideInputBarFlag
p2232
I0
sVChatRoomId
p2233
I0
sVEncryChatRoomId
p2234
g43
sVAttrStatus
p2235
I233511
sVStatues
p2236
I0
stp2237
Rp2238
I1
bag25
(g29
g30
(dp2239
VUserName
p2240
V@5c682fd9f9ee593e217b2306b6389d96
p2241
sVCity
p2242
g43
sVSnsFlag
p2243
I17
sVDisplayName
p2244
g43
sVUniFriend
p2245
I0
sVMemberCount
p2246
I0
sVOwnerUin
p2247
I0
sVMemberList
p2248
g41
sVAlias
p2249
g43
sVPYQuanPin
p2250
VATomGor
p2251
sVSignature
p2252
Vold soliders never die,they just fade away.
p2253
sVRemarkPYInitial
p2254
VXY
p2255
sVContactFlag
p2256
I3
sVUin
p2257
I0
sVNickName
p2258
VATomGor
p2259
sVAppAccountFlag
p2260
I0
sVVerifyFlag
p2261
I0
sVRemarkPYQuanPin
p2262
Vxuyang
p2263
sVHeadImgUrl
p2264
V/cgi-bin/mmwebwx-bin/webwxgeticon?seq=668423154&username=@5c682fd9f9ee593e217b2306b6389d96&skey=@crypt_9fe8734c_86fe8e39d9196b957da5836cfda1b519
p2265
sVKeyWord
p2266
Vxuy
p2267
sVProvince
p2268
VMadrid
p2269
sVPYInitial
p2270
VATOMGOR
p2271
sVRemarkName
p2272
V\u5f90\u7080
p2273
sVIsOwner
p2274
I0
sVSex
p2275
I1
sVStarFriend
p2276
I0
sVHideInputBarFlag
p2277
I0
sVChatRoomId
p2278
I0
sVEncryChatRoomId
p2279
g43
sVAttrStatus
p2280
I110695
sVStatues
p2281
I0
stp2282
Rp2283
I1
bag25
(g29
g30
(dp2284
VUserName
p2285
V@5758148180b73bcb051c2438c7a4518e2775d66e192ee5482aa060e00d3fd3e7
p2286
sVCity
p2287
g43
sVSnsFlag
p2288
I17
sVDisplayName
p2289
g43
sVUniFriend
p2290
I0
sVMemberCount
p2291
I0
sVOwnerUin
p2292
I0
sVMemberList
p2293
g41
sVAlias
p2294
g43
sVPYQuanPin
p2295
Vzhou
p2296
sVSignature
p2297
g43
sVRemarkPYInitial
p2298
g43
sVContactFlag
p2299
I32771
sVUin
p2300
I0
sVNickName
p2301
Vzhou~
p2302
sVAppAccountFlag
p2303
I0
sVVerifyFlag
p2304
I0
sVRemarkPYQuanPin
p2305
g43
sVHeadImgUrl
p2306
V/cgi-bin/mmwebwx-bin/webwxgeticon?seq=668422610&username=@5758148180b73bcb051c2438c7a4518e2775d66e192ee5482aa060e00d3fd3e7&skey=@crypt_9fe8734c_86fe8e39d9196b957da5836cfda1b519
p2307
sVKeyWord
p2308
g43
sVProvince
p2309
VCanberra
p2310
sVPYInitial
p2311
VZHOU
p2312
sVRemarkName
p2313
g43
sVIsOwner
p2314
I0
sVSex
p2315
I1
sVStarFriend
p2316
I0
sVHideInputBarFlag
p2317
I0
sVChatRoomId
p2318
I0
sVEncryChatRoomId
p2319
g43
sVAttrStatus
p2320
I135461
sVStatues
p2321
I0
stp2322
Rp2323
I1
bag25
(g29
g30
(dp2324
VUserName
p2325
V@2c6380ca17ead6a7c1588f2bd3b069220693725118fc025cfc3a365f7e49d106
p2326
sVCity
p2327
V\u5409\u5b89
p2328
sVSnsFlag
p2329
I17
sVDisplayName
p2330
g43
sVUniFriend
p2331
I0
sVMemberCount
p2332
I0
sVOwnerUin
p2333
I0
sVMemberList
p2334
g41
sVAlias
p2335
g43
sVPYQuanPin
p2336
Vlishumei
p2337
sVSignature
p2338
V\u52aa\u529b\u662f\u4e3a\u4e86\u9047\u89c1\u66f4\u597d\u7684\u81ea\u5df1
p2339
sVRemarkPYInitial
p2340
g43
sVContactFlag
p2341
I3
sVUin
p2342
I0
sVNickName
p2343
V\u674e\u6dd1\u6885
p2344
sVAppAccountFlag
p2345
I0
sVVerifyFlag
p2346
I0
sVRemarkPYQuanPin
p2347
g43
sVHeadImgUrl
p2348
V/cgi-bin/mmwebwx-bin/webwxgeticon?seq=668417748&username=@2c6380ca17ead6a7c1588f2bd3b069220693725118fc025cfc3a365f7e49d106&skey=@crypt_9fe8734c_86fe8e39d9196b957da5836cfda1b519
p2349
sVKeyWord
p2350
g43
sVProvince
p2351
V\u6c5f\u897f
p2352
sVPYInitial
p2353
VLSM
p2354
sVRemarkName
p2355
g43
sVIsOwner
p2356
I0
sVSex
p2357
I2
sVStarFriend
p2358
I0
sVHideInputBarFlag
p2359
I0
sVChatRoomId
p2360
I0
sVEncryChatRoomId
p2361
g43
sVAttrStatus
p2362
I136189
sVStatues
p2363
I0
stp2364
Rp2365
I1
bag25
(g29
g30
(dp2366
VUserName
p2367
V@8aa1e570c2c22b57e55840a690061bc4559451713f4da28fafe580bca4933b50
p2368
sVCity
p2369
V\u9ec4\u5188
p2370
sVSnsFlag
p2371
I17
sVDisplayName
p2372
g43
sVUniFriend
p2373
I0
sVMemberCount
p2374
I0
sVOwnerUin
p2375
I0
sVMemberList
p2376
g41
sVAlias
p2377
g43
sVPYQuanPin
p2378
Vyl
p2379
sVSignature
p2380
g43
sVRemarkPYInitial
p2381
VYY
p2382
sVContactFlag
p2383
I3
sVUin
p2384
I0
sVNickName
p2385
Vy\u3002l
p2386
sVAppAccountFlag
p2387
I0
sVVerifyFlag
p2388
I0
sVRemarkPYQuanPin
p2389
Vyuyue
p2390
sVHeadImgUrl
p2391
V/cgi-bin/mmwebwx-bin/webwxgeticon?seq=668423466&username=@8aa1e570c2c22b57e55840a690061bc4559451713f4da28fafe580bca4933b50&skey=@crypt_9fe8734c_86fe8e39d9196b957da5836cfda1b519
p2392
sVKeyWord
p2393
g43
sVProvince
p2394
V\u6e56\u5317
p2395
sVPYInitial
p2396
VYL
p2397
sVRemarkName
p2398
V\u4f59\u4e50
p2399
sVIsOwner
p2400
I0
sVSex
p2401
I1
sVStarFriend
p2402
I0
sVHideInputBarFlag
p2403
I0
sVChatRoomId
p2404
I0
sVEncryChatRoomId
p2405
g43
sVAttrStatus
p2406
I2196583
sVStatues
p2407
I0
stp2408
Rp2409
I1
bag25
(g29
g30
(dp2410
VUserName
p2411
V@6788fd73a2a20df8ecba5fe473679e57934ecf7ff2bef331791299a41c02c701
p2412
sVCity
p2413
V\u6cc9\u5dde
p2414
sVSnsFlag
p2415
I17
sVDisplayName
p2416
g43
sVUniFriend
p2417
I0
sVMemberCount
p2418
I0
sVOwnerUin
p2419
I0
sVMemberList
p2420
g41
sVAlias
p2421
g43
sVPYQuanPin
p2422
VminziZz
p2423
sVSignature
p2424
V\u4fdd\u6301\u4e00\u9897\u5411\u4e0a\u7684\u5fc3
p2425
sVRemarkPYInitial
p2426
VZM
p2427
sVContactFlag
p2428
I3
sVUin
p2429
I0
sVNickName
p2430
V\u654f\u5b50Zz
p2431
sVAppAccountFlag
p2432
I0
sVVerifyFlag
p2433
I0
sVRemarkPYQuanPin
p2434
Vzhanmin
p2435
sVHeadImgUrl
p2436
V/cgi-bin/mmwebwx-bin/webwxgeticon?seq=668423544&username=@6788fd73a2a20df8ecba5fe473679e57934ecf7ff2bef331791299a41c02c701&skey=@crypt_9fe8734c_86fe8e39d9196b957da5836cfda1b519
p2437
sVKeyWord
p2438
g43
sVProvince
p2439
V\u798f\u5efa
p2440
sVPYInitial
p2441
VMZZZ
p2442
sVRemarkName
p2443
V\u8a79\u654f
p2444
sVIsOwner
p2445
I0
sVSex
p2446
I2
sVStarFriend
p2447
I0
sVHideInputBarFlag
p2448
I0
sVChatRoomId
p2449
I0
sVEncryChatRoomId
p2450
g43
sVAttrStatus
p2451
I33657189
sVStatues
p2452
I0
stp2453
Rp2454
I1
bag25
(g29
g30
(dp2455
VUserName
p2456
V@96b9d362fdc59863fbbb280eb6d4424d
p2457
sVCity
p2458
V\u6df1\u5733
p2459
sVSnsFlag
p2460
I17
sVDisplayName
p2461
g43
sVUniFriend
p2462
I0
sVMemberCount
p2463
I0
sVOwnerUin
p2464
I0
sVMemberList
p2465
g41
sVAlias
p2466
g43
sVPYQuanPin
p2467
VStillIn200AM
p2468
sVSignature
p2469
V\u7a81\u7136\u597d\u60f3\u4f60
p2470
sVRemarkPYInitial
p2471
VNWC
p2472
sVContactFlag
p2473
I3
sVUin
p2474
I0
sVNickName
p2475
VStill In 2:00 AM
p2476
sVAppAccountFlag
p2477
I0
sVVerifyFlag
p2478
I0
sVRemarkPYQuanPin
p2479
Vniewencheng
p2480
sVHeadImgUrl
p2481
V/cgi-bin/mmwebwx-bin/webwxgeticon?seq=668422611&username=@96b9d362fdc59863fbbb280eb6d4424d&skey=@crypt_9fe8734c_86fe8e39d9196b957da5836cfda1b519
p2482
sVKeyWord
p2483
Vn15
p2484
sVProvince
p2485
V\u5e7f\u4e1c
p2486
sVPYInitial
p2487
VSTILLIN200AM
p2488
sVRemarkName
p2489
V\u8042\u6587\u6210
p2490
sVIsOwner
p2491
I0
sVSex
p2492
I1
sVStarFriend
p2493
I0
sVHideInputBarFlag
p2494
I0
sVChatRoomId
p2495
I0
sVEncryChatRoomId
p2496
g43
sVAttrStatus
p2497
I184957
sVStatues
p2498
I0
stp2499
Rp2500
I1
bag25
(g29
g30
(dp2501
VUserName
p2502
V@e21113d81e68d80024178cf3903c2e54891ce0ccaad0538b680ecbf413674048
p2503
sVCity
p2504
VGarden Grove City
p2505
sVSnsFlag
p2506
I17
sVDisplayName
p2507
g43
sVUniFriend
p2508
I0
sVMemberCount
p2509
I0
sVOwnerUin
p2510
I0
sVMemberList
p2511
g41
sVAlias
p2512
g43
sVPYQuanPin
p2513
VSkywalker
p2514
sVSignature
p2515
V\u6709\u4e00\u5929\uff0c\u957f\u6210\u53c2\u5929\u5927\u6811\uff01
p2516
sVRemarkPYInitial
p2517
VZSX
p2518
sVContactFlag
p2519
I1
sVUin
p2520
I0
sVNickName
p2521
VSkywalker
p2522
sVAppAccountFlag
p2523
I0
sVVerifyFlag
p2524
I0
sVRemarkPYQuanPin
p2525
Vzhangshengxiang
p2526
sVHeadImgUrl
p2527
V/cgi-bin/mmwebwx-bin/webwxgeticon?seq=661563098&username=@e21113d81e68d80024178cf3903c2e54891ce0ccaad0538b680ecbf413674048&skey=@crypt_9fe8734c_86fe8e39d9196b957da5836cfda1b519
p2528
sVKeyWord
p2529
g43
sVProvince
p2530
VCalifornia
p2531
sVPYInitial
p2532
VSKYWALKER
p2533
sVRemarkName
p2534
V\u5f20\u5723\u7965
p2535
sVIsOwner
p2536
I0
sVSex
p2537
I1
sVStarFriend
p2538
I0
sVHideInputBarFlag
p2539
I0
sVChatRoomId
p2540
I0
sVEncryChatRoomId
p2541
g43
sVAttrStatus
p2542
I33784255
sVStatues
p2543
I0
stp2544
Rp2545
I1
bag25
(g29
g30
(dp2546
VUserName
p2547
V@0767a1fd413e90706a8e9b11adc2cc930a181a385734d4fc5a2fe052c386da10
p2548
sVCity
p2549
g43
sVSnsFlag
p2550
I17
sVDisplayName
p2551
g43
sVUniFriend
p2552
I0
sVMemberCount
p2553
I0
sVOwnerUin
p2554
I0
sVMemberList
p2555
g41
sVAlias
p2556
g43
sVPYQuanPin
p2557
Vguqi
p2558
sVSignature
p2559
g43
sVRemarkPYInitial
p2560
g43
sVContactFlag
p2561
I259
sVUin
p2562
I0
sVNickName
p2563
V\u53e4\u5947
p2564
sVAppAccountFlag
p2565
I0
sVVerifyFlag
p2566
I0
sVRemarkPYQuanPin
p2567
g43
sVHeadImgUrl
p2568
V/cgi-bin/mmwebwx-bin/webwxgeticon?seq=668419278&username=@0767a1fd413e90706a8e9b11adc2cc930a181a385734d4fc5a2fe052c386da10&skey=@crypt_9fe8734c_86fe8e39d9196b957da5836cfda1b519
p2569
sVKeyWord
p2570
g43
sVProvince
p2571
VGerona
p2572
sVPYInitial
p2573
VGQ
p2574
sVRemarkName
p2575
g43
sVIsOwner
p2576
I0
sVSex
p2577
I1
sVStarFriend
p2578
I0
sVHideInputBarFlag
p2579
I0
sVChatRoomId
p2580
I0
sVEncryChatRoomId
p2581
g43
sVAttrStatus
p2582
I102437
sVStatues
p2583
I0
stp2584
Rp2585
I1
bag25
(g29
g30
(dp2586
VUserName
p2587
V@11e14671a54d07ae5491dd39bb09eadefcd96a672204e444c63576083f86d8b9
p2588
sVCity
p2589
V\u5357\u660c
p2590
sVSnsFlag
p2591
I17
sVDisplayName
p2592
g43
sVUniFriend
p2593
I0
sVMemberCount
p2594
I0
sVOwnerUin
p2595
I0
sVMemberList
p2596
g41
sVAlias
p2597
g43
sVPYQuanPin
p2598
Vzitongzi
p2599
sVSignature
p2600
Vballad  get me \u6e10\u611f\u5357\u5317\u4e24\u5b57\u7684\u6e29\u67d4
p2601
sVRemarkPYInitial
p2602
VJJDY
p2603
sVContactFlag
p2604
I3
sVUin
p2605
I0
sVNickName
p2606
V\u6893\u6850\u6893
p2607
sVAppAccountFlag
p2608
I0
sVVerifyFlag
p2609
I0
sVRemarkPYQuanPin
p2610
Vjiajiaoduiyou
p2611
sVHeadImgUrl
p2612
V/cgi-bin/mmwebwx-bin/webwxgeticon?seq=664950273&username=@11e14671a54d07ae5491dd39bb09eadefcd96a672204e444c63576083f86d8b9&skey=@crypt_9fe8734c_86fe8e39d9196b957da5836cfda1b519
p2613
sVKeyWord
p2614
g43
sVProvince
p2615
V\u6c5f\u897f
p2616
sVPYInitial
p2617
VZTZ
p2618
sVRemarkName
p2619
V\u9a7e\u6821\u961f\u53cb
p2620
sVIsOwner
p2621
I0
sVSex
p2622
I1
sVStarFriend
p2623
I0
sVHideInputBarFlag
p2624
I0
sVChatRoomId
p2625
I0
sVEncryChatRoomId
p2626
g43
sVAttrStatus
p2627
I135203
sVStatues
p2628
I0
stp2629
Rp2630
I1
bag25
(g29
g30
(dp2631
VUserName
p2632
V@c3e347d841f892fad2ba11ca8a25287ac35abd9a5bb3be0dfb54e154fca6bc2f
p2633
sVCity
p2634
V\u5b9c\u6625
p2635
sVSnsFlag
p2636
I1
sVDisplayName
p2637
g43
sVUniFriend
p2638
I0
sVMemberCount
p2639
I0
sVOwnerUin
p2640
I0
sVMemberList
p2641
g41
sVAlias
p2642
g43
sVPYQuanPin
p2643
Vxiwang
p2644
sVSignature
p2645
V\u5f00\u5fc3\u5c31\u597d
p2646
sVRemarkPYInitial
p2647
VJTXX
p2648
sVContactFlag
p2649
I3
sVUin
p2650
I0
sVNickName
p2651
V\u5e0c\u671b
p2652
sVAppAccountFlag
p2653
I0
sVVerifyFlag
p2654
I0
sVRemarkPYQuanPin
p2655
Vjiaotangxiexing
p2656
sVHeadImgUrl
p2657
V/cgi-bin/mmwebwx-bin/webwxgeticon?seq=644010472&username=@c3e347d841f892fad2ba11ca8a25287ac35abd9a5bb3be0dfb54e154fca6bc2f&skey=@crypt_9fe8734c_86fe8e39d9196b957da5836cfda1b519
p2658
sVKeyWord
p2659
g43
sVProvince
p2660
V\u6c5f\u897f
p2661
sVPYInitial
p2662
VXW
p2663
sVRemarkName
p2664
V\u7126\u5858\u8c22\u5e78
p2665
sVIsOwner
p2666
I0
sVSex
p2667
I1
sVStarFriend
p2668
I0
sVHideInputBarFlag
p2669
I0
sVChatRoomId
p2670
I0
sVEncryChatRoomId
p2671
g43
sVAttrStatus
p2672
I4197
sVStatues
p2673
I0
stp2674
Rp2675
I1
bag25
(g29
g30
(dp2676
VUserName
p2677
V@91f26ac71c348e12a7780d0e77d6b775274718eed7045ec0867797fd0e34b029
p2678
sVCity
p2679
V\u666f\u5fb7\u9547
p2680
sVSnsFlag
p2681
I17
sVDisplayName
p2682
g43
sVUniFriend
p2683
I0
sVMemberCount
p2684
I0
sVOwnerUin
p2685
I0
sVMemberList
p2686
g41
sVAlias
p2687
g43
sVPYQuanPin
p2688
Vwuleichang
p2689
sVSignature
p2690
V\u5608\u6742!\u8052\u566a!
p2691
sVRemarkPYInitial
p2692
VDL
p2693
sVContactFlag
p2694
I3
sVUin
p2695
I0
sVNickName
p2696
V\u5434\u78ca\u660c
p2697
sVAppAccountFlag
p2698
I0
sVVerifyFlag
p2699
I0
sVRemarkPYQuanPin
p2700
Vdalei
p2701
sVHeadImgUrl
p2702
V/cgi-bin/mmwebwx-bin/webwxgeticon?seq=668423565&username=@91f26ac71c348e12a7780d0e77d6b775274718eed7045ec0867797fd0e34b029&skey=@crypt_9fe8734c_86fe8e39d9196b957da5836cfda1b519
p2703
sVKeyWord
p2704
g43
sVProvince
p2705
V\u6c5f\u897f
p2706
sVPYInitial
p2707
VWLC
p2708
sVRemarkName
p2709
V\u5927\u78ca
p2710
sVIsOwner
p2711
I0
sVSex
p2712
I1
sVStarFriend
p2713
I0
sVHideInputBarFlag
p2714
I0
sVChatRoomId
p2715
I0
sVEncryChatRoomId
p2716
g43
sVAttrStatus
p2717
I4133
sVStatues
p2718
I0
stp2719
Rp2720
I1
bag25
(g29
g30
(dp2721
VUserName
p2722
V@3db3cfb6168a0b5269a26895ead40194dc86bcc3800ba1a2804d274308f11c2f
p2723
sVCity
p2724
V\u6df1\u5733
p2725
sVSnsFlag
p2726
I0
sVDisplayName
p2727
g43
sVUniFriend
p2728
I0
sVMemberCount
p2729
I0
sVOwnerUin
p2730
I0
sVMemberList
p2731
g41
sVAlias
p2732
g43
sVPYQuanPin
p2733
Vlordyung
p2734
sVSignature
p2735
V\u4e00\u6b21\u53ea\u505a\u4e00\u4ef6\u4e8b\uff0c\u5e76\u628a\u5b83\u505a\u597d\uff01
p2736
sVRemarkPYInitial
p2737
VZSY
p2738
sVContactFlag
p2739
I3
sVUin
p2740
I0
sVNickName
p2741
Vlordyung
p2742
sVAppAccountFlag
p2743
I0
sVVerifyFlag
p2744
I0
sVRemarkPYQuanPin
p2745
Vzhangshengyun
p2746
sVHeadImgUrl
p2747
V/cgi-bin/mmwebwx-bin/webwxgeticon?seq=668424061&username=@3db3cfb6168a0b5269a26895ead40194dc86bcc3800ba1a2804d274308f11c2f&skey=@crypt_9fe8734c_86fe8e39d9196b957da5836cfda1b519
p2748
sVKeyWord
p2749
Vzha
p2750
sVProvince
p2751
V\u5e7f\u4e1c
p2752
sVPYInitial
p2753
VLORDYUNG
p2754
sVRemarkName
p2755
V\u5f20\u7ef3\u4e91
p2756
sVIsOwner
p2757
I0
sVSex
p2758
I1
sVStarFriend
p2759
I0
sVHideInputBarFlag
p2760
I0
sVChatRoomId
p2761
I0
sVEncryChatRoomId
p2762
g43
sVAttrStatus
p2763
I98407
sVStatues
p2764
I0
stp2765
Rp2766
I1
bag25
(g29
g30
(dp2767
VUserName
p2768
V@954b1ee239b7fd226e4127778cd7e2bd
p2769
sVCity
p2770
V\u5b9c\u6625
p2771
sVSnsFlag
p2772
I49
sVDisplayName
p2773
g43
sVUniFriend
p2774
I0
sVMemberCount
p2775
I0
sVOwnerUin
p2776
I0
sVMemberList
p2777
g41
sVAlias
p2778
g43
sVPYQuanPin
p2779
Vhaohaoxuexitiantianxiangshang
p2780
sVSignature
p2781
V\u6015\u4ec0\u4e48\u771f\u7406\u65e0\u7a77\uff0c\u8fdb\u4e00\u5bf8\u6709\u4e00\u5bf8\u7684\u6b22\u559c\u3002
p2782
sVRemarkPYInitial
p2783
VDG
p2784
sVContactFlag
p2785
I3
sVUin
p2786
I0
sVNickName
p2787
V\u597d\u597d\u5b66\u4e60\uff0c\u5929\u5929\u5411\u4e0a\uff01
p2788
sVAppAccountFlag
p2789
I0
sVVerifyFlag
p2790
I0
sVRemarkPYQuanPin
p2791
Vdonggen
p2792
sVHeadImgUrl
p2793
V/cgi-bin/mmwebwx-bin/webwxgeticon?seq=648483117&username=@954b1ee239b7fd226e4127778cd7e2bd&skey=@crypt_9fe8734c_86fe8e39d9196b957da5836cfda1b519
p2794
sVKeyWord
p2795
Vq37
p2796
sVProvince
p2797
V\u6c5f\u897f
p2798
sVPYInitial
p2799
VHHXXTTXS
p2800
sVRemarkName
p2801
V\u4e1c\u6839
p2802
sVIsOwner
p2803
I0
sVSex
p2804
I1
sVStarFriend
p2805
I0
sVHideInputBarFlag
p2806
I0
sVChatRoomId
p2807
I0
sVEncryChatRoomId
p2808
g43
sVAttrStatus
p2809
I102503
sVStatues
p2810
I0
stp2811
Rp2812
I1
bag25
(g29
g30
(dp2813
VUserName
p2814
V@2347d86c03f26f44c8ce2de648ed49bd4dfe9d3dc69313e932385c80e38097a7
p2815
sVCity
p2816
V\u6cc9\u5dde
p2817
sVSnsFlag
p2818
I49
sVDisplayName
p2819
g43
sVUniFriend
p2820
I0
sVMemberCount
p2821
I0
sVOwnerUin
p2822
I0
sVMemberList
p2823
g41
sVAlias
p2824
g43
sVPYQuanPin
p2825
Vbirder
p2826
sVSignature
p2827
g43
sVRemarkPYInitial
p2828
VZJS
p2829
sVContactFlag
p2830
I3
sVUin
p2831
I0
sVNickName
p2832
Vbirder
p2833
sVAppAccountFlag
p2834
I0
sVVerifyFlag
p2835
I0
sVRemarkPYQuanPin
p2836
Vzhangjiansen
p2837
sVHeadImgUrl
p2838
V/cgi-bin/mmwebwx-bin/webwxgeticon?seq=668411232&username=@2347d86c03f26f44c8ce2de648ed49bd4dfe9d3dc69313e932385c80e38097a7&skey=@crypt_9fe8734c_86fe8e39d9196b957da5836cfda1b519
p2839
sVKeyWord
p2840
g43
sVProvince
p2841
V\u798f\u5efa
p2842
sVPYInitial
p2843
VBIRDER
p2844
sVRemarkName
p2845
V\u7ae0\u5efa\u68ee
p2846
sVIsOwner
p2847
I0
sVSex
p2848
I1
sVStarFriend
p2849
I0
sVHideInputBarFlag
p2850
I0
sVChatRoomId
p2851
I0
sVEncryChatRoomId
p2852
g43
sVAttrStatus
p2853
I102631
sVStatues
p2854
I0
stp2855
Rp2856
I1
bag25
(g29
g30
(dp2857
VUserName
p2858
V@cef137329ede2c0d2347d26f9a4e4909b9ea15af8369c4626723148f4c969938
p2859
sVCity
p2860
g43
sVSnsFlag
p2861
I1
sVDisplayName
p2862
g43
sVUniFriend
p2863
I0
sVMemberCount
p2864
I0
sVOwnerUin
p2865
I0
sVMemberList
p2866
g41
sVAlias
p2867
g43
sVPYQuanPin
p2868
VZeoray
p2869
sVSignature
p2870
g43
sVRemarkPYInitial
p2871
VZR
p2872
sVContactFlag
p2873
I3
sVUin
p2874
I0
sVNickName
p2875
VZeoray
p2876
sVAppAccountFlag
p2877
I0
sVVerifyFlag
p2878
I0
sVRemarkPYQuanPin
p2879
Vzhourui
p2880
sVHeadImgUrl
p2881
V/cgi-bin/mmwebwx-bin/webwxgeticon?seq=668424939&username=@cef137329ede2c0d2347d26f9a4e4909b9ea15af8369c4626723148f4c969938&skey=@crypt_9fe8734c_86fe8e39d9196b957da5836cfda1b519
p2882
sVKeyWord
p2883
g43
sVProvince
p2884
g43
sVPYInitial
p2885
VZEORAY
p2886
sVRemarkName
p2887
V\u5468\u82ae
p2888
sVIsOwner
p2889
I0
sVSex
p2890
I0
sVStarFriend
p2891
I0
sVHideInputBarFlag
p2892
I0
sVChatRoomId
p2893
I0
sVEncryChatRoomId
p2894
g43
sVAttrStatus
p2895
I104893
sVStatues
p2896
I0
stp2897
Rp2898
I1
bag25
(g29
g30
(dp2899
VUserName
p2900
V@c1dacb5bcb7f5bf6a568b0b99d583fdc
p2901
sVCity
p2902
g43
sVSnsFlag
p2903
I17
sVDisplayName
p2904
g43
sVUniFriend
p2905
I0
sVMemberCount
p2906
I0
sVOwnerUin
p2907
I0
sVMemberList
p2908
g41
sVAlias
p2909
g43
sVPYQuanPin
p2910
Vdatuantuan
p2911
sVSignature
p2912
V\u613f\u6240\u6709\u7684\u4e8b\u60c5\u90fd\u548c\u957f\u80d6\u4e00\u6837\u7b80\u5355
p2913
sVRemarkPYInitial
p2914
VSYY
p2915
sVContactFlag
p2916
I3
sVUin
p2917
I0
sVNickName
p2918
V\u5927\u56e2\u56e2
p2919
sVAppAccountFlag
p2920
I0
sVVerifyFlag
p2921
I0
sVRemarkPYQuanPin
p2922
Vsunyuying
p2923
sVHeadImgUrl
p2924
V/cgi-bin/mmwebwx-bin/webwxgeticon?seq=668423199&username=@c1dacb5bcb7f5bf6a568b0b99d583fdc&skey=@crypt_9fe8734c_86fe8e39d9196b957da5836cfda1b519
p2925
sVKeyWord
p2926
Vsun
p2927
sVProvince
p2928
V\u6e56\u5317
p2929
sVPYInitial
p2930
VDTT
p2931
sVRemarkName
p2932
V\u5b59\u7389\u83b9
p2933
sVIsOwner
p2934
I0
sVSex
p2935
I2
sVStarFriend
p2936
I0
sVHideInputBarFlag
p2937
I0
sVChatRoomId
p2938
I0
sVEncryChatRoomId
p2939
g43
sVAttrStatus
p2940
I101415
sVStatues
p2941
I0
stp2942
Rp2943
I1
bag25
(g29
g30
(dp2944
VUserName
p2945
V@87c13c9013295f3d642a94f719e2cf1a57ce9d878894072d984ebeebce3eae3c
p2946
sVCity
p2947
V\u53a6\u95e8
p2948
sVSnsFlag
p2949
I49
sVDisplayName
p2950
g43
sVUniFriend
p2951
I0
sVMemberCount
p2952
I0
sVOwnerUin
p2953
I0
sVMemberList
p2954
g41
sVAlias
p2955
g43
sVPYQuanPin
p2956
Vnanshen
p2957
sVSignature
p2958
V\u7981\u6b32\u7cfb\u7537\u795e \u2160 \u552f\u4e00\u7684\u7f3a\u70b9\u5c31\u662f\u592a\u8fc7\u5b8c\u7f8e\u3002
p2959
sVRemarkPYInitial
p2960
VHC
p2961
sVContactFlag
p2962
I8195
sVUin
p2963
I0
sVNickName
p2964
V\u7537\u795e
p2965
sVAppAccountFlag
p2966
I0
sVVerifyFlag
p2967
I0
sVRemarkPYQuanPin
p2968
Vhuangchao
p2969
sVHeadImgUrl
p2970
V/cgi-bin/mmwebwx-bin/webwxgeticon?seq=648518061&username=@87c13c9013295f3d642a94f719e2cf1a57ce9d878894072d984ebeebce3eae3c&skey=@crypt_9fe8734c_86fe8e39d9196b957da5836cfda1b519
p2971
sVKeyWord
p2972
Vhua
p2973
sVProvince
p2974
V\u798f\u5efa
p2975
sVPYInitial
p2976
VNS
p2977
sVRemarkName
p2978
V\u9ec4\u712f
p2979
sVIsOwner
p2980
I0
sVSex
p2981
I1
sVStarFriend
p2982
I0
sVHideInputBarFlag
p2983
I0
sVChatRoomId
p2984
I0
sVEncryChatRoomId
p2985
g43
sVAttrStatus
p2986
I102503
sVStatues
p2987
I0
stp2988
Rp2989
I1
bag25
(g29
g30
(dp2990
VUserName
p2991
V@9534d1b342ec37ec4bfbb46372c3b8c152d93ecc306d86550f6d5b765ec67120
p2992
sVCity
p2993
V\u664b\u4e2d
p2994
sVSnsFlag
p2995
I17
sVDisplayName
p2996
g43
sVUniFriend
p2997
I0
sVMemberCount
p2998
I0
sVOwnerUin
p2999
I0
sVMemberList
p3000
g41
sVAlias
p3001
g43
sVPYQuanPin
p3002
Vfang
p3003
sVSignature
p3004
g43
sVRemarkPYInitial
p3005
VLXF
p3006
sVContactFlag
p3007
I3
sVUin
p3008
I0
sVNickName
p3009
V\u82b3
p3010
sVAppAccountFlag
p3011
I0
sVVerifyFlag
p3012
I0
sVRemarkPYQuanPin
p3013
Vliuxiaofang
p3014
sVHeadImgUrl
p3015
V/cgi-bin/mmwebwx-bin/webwxgeticon?seq=668416996&username=@9534d1b342ec37ec4bfbb46372c3b8c152d93ecc306d86550f6d5b765ec67120&skey=@crypt_9fe8734c_86fe8e39d9196b957da5836cfda1b519
p3016
sVKeyWord
p3017
g43
sVProvince
p3018
V\u5c71\u897f
p3019
sVPYInitial
p3020
VF
p3021
sVRemarkName
p3022
V\u5218\u6653\u82b3
p3023
sVIsOwner
p3024
I0
sVSex
p3025
I2
sVStarFriend
p3026
I0
sVHideInputBarFlag
p3027
I0
sVChatRoomId
p3028
I0
sVEncryChatRoomId
p3029
g43
sVAttrStatus
p3030
I37
sVStatues
p3031
I0
stp3032
Rp3033
I1
bag25
(g29
g30
(dp3034
VUserName
p3035
V@cf4e929cb436d9da51d5a28b4c8335b1
p3036
sVCity
p3037
V\u6d77\u6dc0
p3038
sVSnsFlag
p3039
I17
sVDisplayName
p3040
g43
sVUniFriend
p3041
I0
sVMemberCount
p3042
I0
sVOwnerUin
p3043
I0
sVMemberList
p3044
g41
sVAlias
p3045
g43
sVPYQuanPin
p3046
Vdingyipin
p3047
sVSignature
p3048
V\u4ed6\u5f3a\u4efb\u4ed6\u5f3a\uff0c\u6e05\u98ce\u62c2\u5c71\u5c97\u3002\u4ed6\u6a2a\u7531\u4ed6\u6a2a\uff0c\u660e\u6708\u7167\u5927\u6c5f\u3002
p3049
sVRemarkPYInitial
p3050
VDZ
p3051
sVContactFlag
p3052
I3
sVUin
p3053
I0
sVNickName
p3054
V\u4e01\u4e00\u54c1
p3055
sVAppAccountFlag
p3056
I0
sVVerifyFlag
p3057
I0
sVRemarkPYQuanPin
p3058
Vdingzong
p3059
sVHeadImgUrl
p3060
V/cgi-bin/mmwebwx-bin/webwxgeticon?seq=668425720&username=@cf4e929cb436d9da51d5a28b4c8335b1&skey=@crypt_9fe8734c_86fe8e39d9196b957da5836cfda1b519
p3061
sVKeyWord
p3062
Vyip
p3063
sVProvince
p3064
V\u5317\u4eac
p3065
sVPYInitial
p3066
VDYP
p3067
sVRemarkName
p3068
V\u4e01\u603b
p3069
sVIsOwner
p3070
I0
sVSex
p3071
I1
sVStarFriend
p3072
I0
sVHideInputBarFlag
p3073
I0
sVChatRoomId
p3074
I0
sVEncryChatRoomId
p3075
g43
sVAttrStatus
p3076
I98343
sVStatues
p3077
I0
stp3078
Rp3079
I1
bag25
(g29
g30
(dp3080
VUserName
p3081
V@0863be4615c1a252894819cfe1fa999479729e3c5e4672060733496fe92d0b9e
p3082
sVCity
p3083
VMelbourne
p3084
sVSnsFlag
p3085
I17
sVDisplayName
p3086
g43
sVUniFriend
p3087
I0
sVMemberCount
p3088
I0
sVOwnerUin
p3089
I0
sVMemberList
p3090
g41
sVAlias
p3091
g43
sVPYQuanPin
p3092
VlvaoqingAoqingLYU
p3093
sVSignature
p3094
g43
sVRemarkPYInitial
p3095
VLAQ
p3096
sVContactFlag
p3097
I3
sVUin
p3098
I0
sVNickName
p3099
V\u5415\u5965\u537f(Aoqing_LYU)
p3100
sVAppAccountFlag
p3101
I0
sVVerifyFlag
p3102
I0
sVRemarkPYQuanPin
p3103
Vlvaoqing
p3104
sVHeadImgUrl
p3105
V/cgi-bin/mmwebwx-bin/webwxgeticon?seq=668425828&username=@0863be4615c1a252894819cfe1fa999479729e3c5e4672060733496fe92d0b9e&skey=@crypt_9fe8734c_86fe8e39d9196b957da5836cfda1b519
p3106
sVKeyWord
p3107
Vlva
p3108
sVProvince
p3109
VVictoria
p3110
sVPYInitial
p3111
VLAQAOQINGLYU
p3112
sVRemarkName
p3113
V\u5415\u5965\u537f
p3114
sVIsOwner
p3115
I0
sVSex
p3116
I1
sVStarFriend
p3117
I0
sVHideInputBarFlag
p3118
I0
sVChatRoomId
p3119
I0
sVEncryChatRoomId
p3120
g43
sVAttrStatus
p3121
I33804927
sVStatues
p3122
I0
stp3123
Rp3124
I1
bag25
(g29
g30
(dp3125
VUserName
p3126
V@2ecf62c7f7cb780a94bf1f5358111ee580bb8f5aba8840cddd0e2fe18df1d88b
p3127
sVCity
p3128
g43
sVSnsFlag
p3129
I17
sVDisplayName
p3130
g43
sVUniFriend
p3131
I0
sVMemberCount
p3132
I0
sVOwnerUin
p3133
I0
sVMemberList
p3134
g41
sVAlias
p3135
g43
sVPYQuanPin
p3136
Vgaoshouspanclassemojiemoji1f618span
p3137
sVSignature
p3138
V\u7acb\u5fd7\u5f53\u4e2a\u597d\u5b98\uff01
p3139
sVRemarkPYInitial
p3140
VLJY
p3141
sVContactFlag
p3142
I3
sVUin
p3143
I0
sVNickName
p3144
V\u9ad8\u624b\U0001f618
p3145
sVAppAccountFlag
p3146
I0
sVVerifyFlag
p3147
I0
sVRemarkPYQuanPin
p3148
Vliujiayao
p3149
sVHeadImgUrl
p3150
V/cgi-bin/mmwebwx-bin/webwxgeticon?seq=668425821&username=@2ecf62c7f7cb780a94bf1f5358111ee580bb8f5aba8840cddd0e2fe18df1d88b&skey=@crypt_9fe8734c_86fe8e39d9196b957da5836cfda1b519
p3151
sVKeyWord
p3152
g43
sVProvince
p3153
g43
sVPYInitial
p3154
VGSSPANCLASSEMOJIEMOJI1F618SPAN
p3155
sVRemarkName
p3156
V\u5218\u5bb6\u8000
p3157
sVIsOwner
p3158
I0
sVSex
p3159
I1
sVStarFriend
p3160
I0
sVHideInputBarFlag
p3161
I0
sVChatRoomId
p3162
I0
sVEncryChatRoomId
p3163
g43
sVAttrStatus
p3164
I102437
sVStatues
p3165
I0
stp3166
Rp3167
I1
bag25
(g29
g30
(dp3168
VUserName
p3169
V@8696a32315d2c27a2744b539f21f03d0020349f06634e02fbff94a4e6863682f
p3170
sVCity
p3171
V\u6cc9\u5dde
p3172
sVSnsFlag
p3173
I49
sVDisplayName
p3174
g43
sVUniFriend
p3175
I0
sVMemberCount
p3176
I0
sVOwnerUin
p3177
I0
sVMemberList
p3178
g41
sVAlias
p3179
g43
sVPYQuanPin
p3180
VA1haotitoujiangwuhenjiefa
p3181
sVSignature
p3182
V\u6cc9\u5dde\u6211\u6765\u4e86
p3183
sVRemarkPYInitial
p3184
g43
sVContactFlag
p3185
I65795
sVUin
p3186
I0
sVNickName
p3187
VA..(1\u53f7)\u5243\u5934\u5320(\u65e0\u75d5\u63a5\u53d1)
p3188
sVAppAccountFlag
p3189
I0
sVVerifyFlag
p3190
I0
sVRemarkPYQuanPin
p3191
g43
sVHeadImgUrl
p3192
V/cgi-bin/mmwebwx-bin/webwxgeticon?seq=648507636&username=@8696a32315d2c27a2744b539f21f03d0020349f06634e02fbff94a4e6863682f&skey=@crypt_9fe8734c_86fe8e39d9196b957da5836cfda1b519
p3193
sVKeyWord
p3194
Vlia
p3195
sVProvince
p3196
V\u798f\u5efa
p3197
sVPYInitial
p3198
VA1HTTJWHJF
p3199
sVRemarkName
p3200
g43
sVIsOwner
p3201
I0
sVSex
p3202
I1
sVStarFriend
p3203
I0
sVHideInputBarFlag
p3204
I0
sVChatRoomId
p3205
I0
sVEncryChatRoomId
p3206
g43
sVAttrStatus
p3207
I102439
sVStatues
p3208
I0
stp3209
Rp3210
I1
batp3211
Rp3212
I1
bsS'chatroomList'
p3213
g25
(g26
g27
(lp3214
g25
(citchat.storage.templates
Chatroom
p3215
g30
(dp3216
VUserName
p3217
V@@fa6029d53214cbbf3477f5a62ecd7fff1a750a34c38f9ae5ec6cb6b70d529eac
p3218
sVCity
p3219
g43
sVDisplayName
p3220
g43
sVUniFriend
p3221
I0
sS'Self'
p3222
g25
(g29
g30
(dp3223
g32
g22
sg33
g34
sg35
g34
sg36
I0
sg37
I0
sg38
g25
(g26
g27
(lp3224
tp3225
Rp3226
I1
bsg42
g43
sg44
g43
sg45
I1727002728
sg46
I0
sg47
I0
sg48
g34
sg49
g34
sg50
g43
sg51
g43
sg52
I0
sg53
I0
sg54
I1
sg55
g34
sg56
I0
sg57
I17
sg58
I0
sg59
I0
sg60
g34
sg61
g43
sg62
I0
sg63
g64
sg65
g43
sg66
g67
sg68
I1
sg69
I0
sg70
I0
stp3227
Rp3228
I1
bsVMemberList
p3229
g25
(g26
g27
(lp3230
tp3231
Rp3232
I1
bsVPYQuanPin
p3233
Vduoyidianzhenchengshaoyidianlengchang
p3234
sVRemarkPYInitial
p3235
g43
sVSex
p3236
I0
sVAppAccountFlag
p3237
I0
sVVerifyFlag
p3238
I0
sVProvince
p3239
g43
sVKeyWord
p3240
g43
sVRemarkName
p3241
g43
sVPYInitial
p3242
VDYDZCSYDLC
p3243
sVIsOwner
p3244
I0
sVChatRoomId
p3245
I0
sVHideInputBarFlag
p3246
I0
sVEncryChatRoomId
p3247
g43
sVAttrStatus
p3248
I0
sVSnsFlag
p3249
I0
sVMemberCount
p3250
I13
sVOwnerUin
p3251
I0
sVAlias
p3252
g43
sS'IsAdmin'
p3253
NsVSignature
p3254
g43
sVContactFlag
p3255
I3
sVNickName
p3256
V\u591a\u4e00\u70b9\u771f\u8bda\uff0c\u5c11\u4e00\u70b9\u51b7\u573a\u3002
p3257
sVRemarkPYQuanPin
p3258
g43
sVHeadImgUrl
p3259
V/cgi-bin/mmwebwx-bin/webwxgetheadimg?seq=668425864&username=@@fa6029d53214cbbf3477f5a62ecd7fff1a750a34c38f9ae5ec6cb6b70d529eac&skey=@crypt_9fe8734c_86fe8e39d9196b957da5836cfda1b519
p3260
sVUin
p3261
I0
sVStarFriend
p3262
I0
sVStatues
p3263
I0
stp3264
Rp3265
I1
bag25
(g3215
g30
(dp3266
VUserName
p3267
V@@6e131f2ffb9b350d94da5de609c252e8408708fd2c0ae1d3c2568fb674f8b5ed
p3268
sVCity
p3269
g43
sVDisplayName
p3270
g43
sVUniFriend
p3271
I0
sg3222
g25
(g29
g30
(dp3272
g32
g22
sg33
g34
sg35
g34
sg36
I0
sg37
I0
sg38
g25
(g26
g27
(lp3273
tp3274
Rp3275
I1
bsg42
g43
sg44
g43
sg45
I1727002728
sg46
I0
sg47
I0
sg48
g34
sg49
g34
sg50
g43
sg51
g43
sg52
I0
sg53
I0
sg54
I1
sg55
g34
sg56
I0
sg57
I17
sg58
I0
sg59
I0
sg60
g34
sg61
g43
sg62
I0
sg63
g64
sg65
g43
sg66
g67
sg68
I1
sg69
I0
sg70
I0
stp3276
Rp3277
I1
bsVMemberList
p3278
g25
(g26
g27
(lp3279
tp3280
Rp3281
I1
bsVPYQuanPin
p3282
V15bandeshuaigemeinvmen6666
p3283
sVRemarkPYInitial
p3284
g43
sVSex
p3285
I0
sVAppAccountFlag
p3286
I0
sVVerifyFlag
p3287
I0
sVProvince
p3288
g43
sVKeyWord
p3289
g43
sVRemarkName
p3290
g43
sVPYInitial
p3291
V15BDSGMNM6666
p3292
sVIsOwner
p3293
I0
sVChatRoomId
p3294
I0
sVHideInputBarFlag
p3295
I0
sVEncryChatRoomId
p3296
g43
sVAttrStatus
p3297
I0
sVSnsFlag
p3298
I0
sVMemberCount
p3299
I62
sVOwnerUin
p3300
I0
sVAlias
p3301
g43
sg3253
NsVSignature
p3302
g43
sVContactFlag
p3303
I3
sVNickName
p3304
V15\u73ed\u7684\u5e05\u54e5\u7f8e\u5973\u4eec 6666
p3305
sVRemarkPYQuanPin
p3306
g43
sVHeadImgUrl
p3307
V/cgi-bin/mmwebwx-bin/webwxgetheadimg?seq=668418642&username=@@6e131f2ffb9b350d94da5de609c252e8408708fd2c0ae1d3c2568fb674f8b5ed&skey=@crypt_9fe8734c_86fe8e39d9196b957da5836cfda1b519
p3308
sVUin
p3309
I0
sVStarFriend
p3310
I0
sVStatues
p3311
I0
stp3312
Rp3313
I1
bag25
(g3215
g30
(dp3314
VUserName
p3315
V@@a1d94ad445327413899b06f09ee0e27883ba548d2577b84c1414c71b9619a062
p3316
sVCity
p3317
g43
sVDisplayName
p3318
g43
sVUniFriend
p3319
I0
sg3222
g25
(g29
g30
(dp3320
g32
g22
sg33
g34
sg35
g34
sg36
I0
sg37
I0
sg38
g25
(g26
g27
(lp3321
tp3322
Rp3323
I1
bsg42
g43
sg44
g43
sg45
I1727002728
sg46
I0
sg47
I0
sg48
g34
sg49
g34
sg50
g43
sg51
g43
sg52
I0
sg53
I0
sg54
I1
sg55
g34
sg56
I0
sg57
I17
sg58
I0
sg59
I0
sg60
g34
sg61
g43
sg62
I0
sg63
g64
sg65
g43
sg66
g67
sg68
I1
sg69
I0
sg70
I0
stp3324
Rp3325
I1
bsVMemberList
p3326
g25
(g26
g27
(lp3327
tp3328
Rp3329
I1
bsVPYQuanPin
p3330
V202
p3331
sVRemarkPYInitial
p3332
g43
sVSex
p3333
I0
sVAppAccountFlag
p3334
I0
sVVerifyFlag
p3335
I0
sVProvince
p3336
g43
sVKeyWord
p3337
g43
sVRemarkName
p3338
g43
sVPYInitial
p3339
V202
p3340
sVIsOwner
p3341
I0
sVChatRoomId
p3342
I0
sVHideInputBarFlag
p3343
I0
sVEncryChatRoomId
p3344
g43
sVAttrStatus
p3345
I0
sVSnsFlag
p3346
I0
sVMemberCount
p3347
I0
sVOwnerUin
p3348
I0
sVAlias
p3349
g43
sg3253
NsVSignature
p3350
g43
sVContactFlag
p3351
I3
sVNickName
p3352
V202
p3353
sVRemarkPYQuanPin
p3354
g43
sVHeadImgUrl
p3355
V/cgi-bin/mmwebwx-bin/webwxgetheadimg?seq=648510367&username=@@a1d94ad445327413899b06f09ee0e27883ba548d2577b84c1414c71b9619a062&skey=@crypt_9fe8734c_86fe8e39d9196b957da5836cfda1b519
p3356
sVUin
p3357
I0
sVStarFriend
p3358
I0
sVStatues
p3359
I1
stp3360
Rp3361
I1
bag25
(g3215
g30
(dp3362
VUserName
p3363
V@@71b9e289853e36ff3dc972bccd4e94b71463c3644238ce94af812a32a10a1114
p3364
sVCity
p3365
g43
sVDisplayName
p3366
g43
sVUniFriend
p3367
I0
sg3222
g25
(g29
g30
(dp3368
g32
g22
sg33
g34
sg35
g34
sg36
I0
sg37
I0
sg38
g25
(g26
g27
(lp3369
tp3370
Rp3371
I1
bsg42
g43
sg44
g43
sg45
I1727002728
sg46
I0
sg47
I0
sg48
g34
sg49
g34
sg50
g43
sg51
g43
sg52
I0
sg53
I0
sg54
I1
sg55
g34
sg56
I0
sg57
I17
sg58
I0
sg59
I0
sg60
g34
sg61
g43
sg62
I0
sg63
g64
sg65
g43
sg66
g67
sg68
I1
sg69
I0
sg70
I0
stp3372
Rp3373
I1
bsVMemberList
p3374
g25
(g26
g27
(lp3375
tp3376
Rp3377
I1
bsVPYQuanPin
p3378
Vqianxiwaipojia
p3379
sVRemarkPYInitial
p3380
g43
sVSex
p3381
I0
sVAppAccountFlag
p3382
I0
sVVerifyFlag
p3383
I0
sVProvince
p3384
g43
sVKeyWord
p3385
g43
sVRemarkName
p3386
g43
sVPYInitial
p3387
VQXWPJ
p3388
sVIsOwner
p3389
I0
sVChatRoomId
p3390
I0
sVHideInputBarFlag
p3391
I0
sVEncryChatRoomId
p3392
g43
sVAttrStatus
p3393
I0
sVSnsFlag
p3394
I0
sVMemberCount
p3395
I0
sVOwnerUin
p3396
I0
sVAlias
p3397
g43
sg3253
NsVSignature
p3398
g43
sVContactFlag
p3399
I3
sVNickName
p3400
V\u8654\u6eaa\u5916\u5a46\u5bb6
p3401
sVRemarkPYQuanPin
p3402
g43
sVHeadImgUrl
p3403
V/cgi-bin/mmwebwx-bin/webwxgetheadimg?seq=641694183&username=@@71b9e289853e36ff3dc972bccd4e94b71463c3644238ce94af812a32a10a1114&skey=@crypt_9fe8734c_86fe8e39d9196b957da5836cfda1b519
p3404
sVUin
p3405
I0
sVStarFriend
p3406
I0
sVStatues
p3407
I0
stp3408
Rp3409
I1
bag25
(g3215
g30
(dp3410
VUserName
p3411
V@@8d4ee50e4f7c6e0bd04a5175aa38775fd2258fb6c5776d5d9455366060af6919
p3412
sVCity
p3413
g43
sVDisplayName
p3414
g43
sVUniFriend
p3415
I0
sg3222
g25
(g29
g30
(dp3416
g32
g22
sg33
g34
sg35
g34
sg36
I0
sg37
I0
sg38
g25
(g26
g27
(lp3417
tp3418
Rp3419
I1
bsg42
g43
sg44
g43
sg45
I1727002728
sg46
I0
sg47
I0
sg48
g34
sg49
g34
sg50
g43
sg51
g43
sg52
I0
sg53
I0
sg54
I1
sg55
g34
sg56
I0
sg57
I17
sg58
I0
sg59
I0
sg60
g34
sg61
g43
sg62
I0
sg63
g64
sg65
g43
sg66
g67
sg68
I1
sg69
I0
sg70
I0
stp3420
Rp3421
I1
bsVMemberList
p3422
g25
(g26
g27
(lp3423
tp3424
Rp3425
I1
bsVPYQuanPin
p3426
V303
p3427
sVRemarkPYInitial
p3428
g43
sVSex
p3429
I0
sVAppAccountFlag
p3430
I0
sVVerifyFlag
p3431
I0
sVProvince
p3432
g43
sVKeyWord
p3433
g43
sVRemarkName
p3434
g43
sVPYInitial
p3435
V303
p3436
sVIsOwner
p3437
I1
sVChatRoomId
p3438
I0
sVHideInputBarFlag
p3439
I0
sVEncryChatRoomId
p3440
g43
sVAttrStatus
p3441
I0
sVSnsFlag
p3442
I0
sVMemberCount
p3443
I0
sVOwnerUin
p3444
I0
sVAlias
p3445
g43
sg3253
NsVSignature
p3446
g43
sVContactFlag
p3447
I3
sVNickName
p3448
V303
p3449
sVRemarkPYQuanPin
p3450
g43
sVHeadImgUrl
p3451
V/cgi-bin/mmwebwx-bin/webwxgetheadimg?seq=664940917&username=@@8d4ee50e4f7c6e0bd04a5175aa38775fd2258fb6c5776d5d9455366060af6919&skey=@crypt_9fe8734c_86fe8e39d9196b957da5836cfda1b519
p3452
sVUin
p3453
I0
sVStarFriend
p3454
I0
sVStatues
p3455
I1
stp3456
Rp3457
I1
bag25
(g3215
g30
(dp3458
VUserName
p3459
V@@34799e2b92b7b8185f5aac51e2e5ec3eadb17b77bf0d679f9624ce5caf095122
p3460
sVCity
p3461
g43
sVDisplayName
p3462
g43
sVUniFriend
p3463
I0
sg3222
g25
(g29
g30
(dp3464
g32
g22
sg33
g34
sg35
g34
sg36
I0
sg37
I0
sg38
g25
(g26
g27
(lp3465
tp3466
Rp3467
I1
bsg42
g43
sg44
g43
sg45
I1727002728
sg46
I0
sg47
I0
sg48
g34
sg49
g34
sg50
g43
sg51
g43
sg52
I0
sg53
I0
sg54
I1
sg55
g34
sg56
I0
sg57
I17
sg58
I0
sg59
I0
sg60
g34
sg61
g43
sg62
I0
sg63
g64
sg65
g43
sg66
g67
sg68
I1
sg69
I0
sg70
I0
stp3468
Rp3469
I1
bsVMemberList
p3470
g25
(g26
g27
(lp3471
tp3472
Rp3473
I1
bsVPYQuanPin
p3474
Vfengchengshashou
p3475
sVRemarkPYInitial
p3476
g43
sVSex
p3477
I0
sVAppAccountFlag
p3478
I0
sVVerifyFlag
p3479
I0
sVProvince
p3480
g43
sVKeyWord
p3481
g43
sVRemarkName
p3482
g43
sVPYInitial
p3483
VFCSS
p3484
sVIsOwner
p3485
I0
sVChatRoomId
p3486
I0
sVHideInputBarFlag
p3487
I0
sVEncryChatRoomId
p3488
g43
sVAttrStatus
p3489
I0
sVSnsFlag
p3490
I0
sVMemberCount
p3491
I0
sVOwnerUin
p3492
I0
sVAlias
p3493
g43
sg3253
NsVSignature
p3494
g43
sVContactFlag
p3495
I3
sVNickName
p3496
V\u4e30\u57ce\u6740\u624b
p3497
sVRemarkPYQuanPin
p3498
g43
sVHeadImgUrl
p3499
V/cgi-bin/mmwebwx-bin/webwxgetheadimg?seq=668420777&username=@@34799e2b92b7b8185f5aac51e2e5ec3eadb17b77bf0d679f9624ce5caf095122&skey=@crypt_9fe8734c_86fe8e39d9196b957da5836cfda1b519
p3500
sVUin
p3501
I0
sVStarFriend
p3502
I0
sVStatues
p3503
I0
stp3504
Rp3505
I1
bag25
(g3215
g30
(dp3506
VUserName
p3507
V@@64d3f1dcd133c21db5cd5fb99eca533766d978fd76c7a1fabe84c9d1ae3b47b3
p3508
sVCity
p3509
g43
sVDisplayName
p3510
g43
sVUniFriend
p3511
I0
sg3222
g25
(g29
g30
(dp3512
g32
g22
sg33
g34
sg35
g34
sg36
I0
sg37
I0
sg38
g25
(g26
g27
(lp3513
tp3514
Rp3515
I1
bsg42
g43
sg44
g43
sg45
I1727002728
sg46
I0
sg47
I0
sg48
g34
sg49
g34
sg50
g43
sg51
g43
sg52
I0
sg53
I0
sg54
I1
sg55
g34
sg56
I0
sg57
I17
sg58
I0
sg59
I0
sg60
g34
sg61
g43
sg62
I0
sg63
g64
sg65
g43
sg66
g67
sg68
I1
sg69
I0
sg70
I0
stp3516
Rp3517
I1
bsVMemberList
p3518
g25
(g26
g27
(lp3519
tp3520
Rp3521
I1
bsVPYQuanPin
p3522
V52famulei
p3523
sVRemarkPYInitial
p3524
g43
sVSex
p3525
I0
sVAppAccountFlag
p3526
I0
sVVerifyFlag
p3527
I0
sVProvince
p3528
g43
sVKeyWord
p3529
g43
sVRemarkName
p3530
g43
sVPYInitial
p3531
V52FML
p3532
sVIsOwner
p3533
I0
sVChatRoomId
p3534
I0
sVHideInputBarFlag
p3535
I0
sVEncryChatRoomId
p3536
g43
sVAttrStatus
p3537
I0
sVSnsFlag
p3538
I0
sVMemberCount
p3539
I0
sVOwnerUin
p3540
I0
sVAlias
p3541
g43
sg3253
NsVSignature
p3542
g43
sVContactFlag
p3543
I3
sVNickName
p3544
V52\u4f10\u6728\u7d2f
p3545
sVRemarkPYQuanPin
p3546
g43
sVHeadImgUrl
p3547
V/cgi-bin/mmwebwx-bin/webwxgetheadimg?seq=641693927&username=@@64d3f1dcd133c21db5cd5fb99eca533766d978fd76c7a1fabe84c9d1ae3b47b3&skey=@crypt_9fe8734c_86fe8e39d9196b957da5836cfda1b519
p3548
sVUin
p3549
I0
sVStarFriend
p3550
I0
sVStatues
p3551
I0
stp3552
Rp3553
I1
batp3554
Rp3555
I1
bsS'nickName'
p3556
g64
sS'mpList'
p3557
g25
(g26
g27
(lp3558
g25
(citchat.storage.templates
MassivePlatform
p3559
g30
(dp3560
VUserName
p3561
V@34fddb82548770275dbd7cb10afd424c
p3562
sVCity
p3563
V\u798f\u5dde
p3564
sVSnsFlag
p3565
I0
sVDisplayName
p3566
g43
sVUniFriend
p3567
I0
sVMemberCount
p3568
I0
sVOwnerUin
p3569
I0
sVMemberList
p3570
g41
sVAlias
p3571
g43
sVPYQuanPin
p3572
Vfujianyidongyingyeting
p3573
sVSignature
p3574
V\u4e2d\u56fd\u79fb\u52a8\u798f\u5efa\u516c\u53f8\u552f\u4e00\u5b98\u65b9\u8d26\u53f7
p3575
sVRemarkPYInitial
p3576
g43
sVContactFlag
p3577
I3
sVUin
p3578
I0
sVNickName
p3579
V\u798f\u5efa\u79fb\u52a8\u8425\u4e1a\u5385
p3580
sVAppAccountFlag
p3581
I0
sVVerifyFlag
p3582
I24
sVRemarkPYQuanPin
p3583
g43
sVHeadImgUrl
p3584
V/cgi-bin/mmwebwx-bin/webwxgeticon?seq=634281994&username=@34fddb82548770275dbd7cb10afd424c&skey=@crypt_9fe8734c_86fe8e39d9196b957da5836cfda1b519
p3585
sVKeyWord
p3586
Vgh_
p3587
sVProvince
p3588
V\u798f\u5efa
p3589
sVPYInitial
p3590
VFJYDYYT
p3591
sVRemarkName
p3592
g43
sVIsOwner
p3593
I0
sVSex
p3594
I0
sVStarFriend
p3595
I0
sVHideInputBarFlag
p3596
I0
sVChatRoomId
p3597
I0
sVEncryChatRoomId
p3598
g43
sVAttrStatus
p3599
I0
sVStatues
p3600
I0
stp3601
Rp3602
I1
bag25
(g3559
g30
(dp3603
VUserName
p3604
V@5934bb6c8807a562ce1abde32ac56d56
p3605
sVCity
p3606
g43
sVSnsFlag
p3607
I0
sVDisplayName
p3608
g43
sVUniFriend
p3609
I0
sVMemberCount
p3610
I0
sVOwnerUin
p3611
I0
sVMemberList
p3612
g41
sVAlias
p3613
g43
sVPYQuanPin
p3614
Vaishangzhijianshiwanbao
p3615
sVSignature
p3616
V\u2705\u7231\u4e0a\u6307\u95f4\u8bd5\u73a9\u5b9d(aszjswb)\uff0c\u63d0\u4f9b\u6700\u771f\u5b9e\u53ef\u9760\u7684\u624b\u8d5a\u5e73\u53f0\uff0c\u81f4\u529b\u4e8e\u8ba9\u7528\u6237\u5728\u7a7a\u95f2\u4e4b\u4f59\u83b7\u5f97\u4e00\u4efd\u989d\u5916\u6536\u5165\uff0c\u52a8\u52a8\u624b\u6307\u5c31\u80fd\u6708\u5165\u51e0\u5343\u5143\uff0c\u96f6\u6295\u5165\u3002
p3617
sVRemarkPYInitial
p3618
g43
sVContactFlag
p3619
I3
sVUin
p3620
I0
sVNickName
p3621
V\u7231\u4e0a\u6307\u95f4\u8bd5\u73a9\u5b9d
p3622
sVAppAccountFlag
p3623
I0
sVVerifyFlag
p3624
I8
sVRemarkPYQuanPin
p3625
g43
sVHeadImgUrl
p3626
V/cgi-bin/mmwebwx-bin/webwxgeticon?seq=648486679&username=@5934bb6c8807a562ce1abde32ac56d56&skey=@crypt_9fe8734c_86fe8e39d9196b957da5836cfda1b519
p3627
sVKeyWord
p3628
Vgh_
p3629
sVProvince
p3630
g43
sVPYInitial
p3631
VASZJSWB
p3632
sVRemarkName
p3633
g43
sVIsOwner
p3634
I0
sVSex
p3635
I0
sVStarFriend
p3636
I0
sVHideInputBarFlag
p3637
I0
sVChatRoomId
p3638
I0
sVEncryChatRoomId
p3639
g43
sVAttrStatus
p3640
I0
sVStatues
p3641
I0
stp3642
Rp3643
I1
bag25
(g3559
g30
(dp3644
VUserName
p3645
V@ce6b85f82e3a5921f193ce36e847410b
p3646
sVCity
p3647
g43
sVSnsFlag
p3648
I0
sVDisplayName
p3649
g43
sVUniFriend
p3650
I0
sVMemberCount
p3651
I0
sVOwnerUin
p3652
I0
sVMemberList
p3653
g41
sVAlias
p3654
g43
sVPYQuanPin
p3655
Vweixinzhifu
p3656
sVSignature
p3657
V\u5e2e\u52a9\u89e3\u51b3\u5fae\u4fe1\u652f\u4ed8\u4e2d\u9047\u5230\u7684\u56f0\u96be\uff0c\u6536\u96c6\u5173\u4e8e\u5fae\u4fe1\u652f\u4ed8\u7684\u5efa\u8bae\u53cd\u9988\u3002
p3658
sVRemarkPYInitial
p3659
g43
sVContactFlag
p3660
I1
sVUin
p3661
I0
sVNickName
p3662
V\u5fae\u4fe1\u652f\u4ed8
p3663
sVAppAccountFlag
p3664
I0
sVVerifyFlag
p3665
I24
sVRemarkPYQuanPin
p3666
g43
sVHeadImgUrl
p3667
V/cgi-bin/mmwebwx-bin/webwxgeticon?seq=620920240&username=@ce6b85f82e3a5921f193ce36e847410b&skey=@crypt_9fe8734c_86fe8e39d9196b957da5836cfda1b519
p3668
sVKeyWord
p3669
Vgh_
p3670
sVProvince
p3671
V\u5e7f\u4e1c
p3672
sVPYInitial
p3673
VWXZF
p3674
sVRemarkName
p3675
g43
sVIsOwner
p3676
I0
sVSex
p3677
I0
sVStarFriend
p3678
I0
sVHideInputBarFlag
p3679
I0
sVChatRoomId
p3680
I0
sVEncryChatRoomId
p3681
g43
sVAttrStatus
p3682
I0
sVStatues
p3683
I0
stp3684
Rp3685
I1
bag25
(g3559
g30
(dp3686
VUserName
p3687
V@26bb9f99cf6602d5824b11e04c54ef87
p3688
sVCity
p3689
V\u6df1\u5733
p3690
sVSnsFlag
p3691
I0
sVDisplayName
p3692
g43
sVUniFriend
p3693
I0
sVMemberCount
p3694
I0
sVOwnerUin
p3695
I0
sVMemberList
p3696
g41
sVAlias
p3697
g43
sVPYQuanPin
p3698
VQQanquanzhongxin
p3699
sVSignature
p3700
VQQ\u5b89\u5168\u4e2d\u5fc3\u5b98\u65b9\u5fae\u4fe1\u3002\u52aa\u529b\u4fdd\u62a4\u60a8\u7684QQ\u5b89\u5168\uff0c\u5173\u952e\u65f6\u523b\u53ca\u65f6\u63d0\u9192\uff0c\u968f\u65f6\u638c\u63e1\u5e10\u53f7\u5b89\u5168\u52a8\u6001\u3002
p3701
sVRemarkPYInitial
p3702
g43
sVContactFlag
p3703
I3
sVUin
p3704
I0
sVNickName
p3705
VQQ\u5b89\u5168\u4e2d\u5fc3
p3706
sVAppAccountFlag
p3707
I0
sVVerifyFlag
p3708
I24
sVRemarkPYQuanPin
p3709
g43
sVHeadImgUrl
p3710
V/cgi-bin/mmwebwx-bin/webwxgeticon?seq=634280481&username=@26bb9f99cf6602d5824b11e04c54ef87&skey=@crypt_9fe8734c_86fe8e39d9196b957da5836cfda1b519
p3711
sVKeyWord
p3712
Vqqs
p3713
sVProvince
p3714
V\u5e7f\u4e1c
p3715
sVPYInitial
p3716
VQQAQZX
p3717
sVRemarkName
p3718
g43
sVIsOwner
p3719
I0
sVSex
p3720
I0
sVStarFriend
p3721
I0
sVHideInputBarFlag
p3722
I0
sVChatRoomId
p3723
I0
sVEncryChatRoomId
p3724
g43
sVAttrStatus
p3725
I0
sVStatues
p3726
I0
stp3727
Rp3728
I1
bag25
(g3559
g30
(dp3729
VUserName
p3730
V@810a820778283e576850e72fed428bfd03348dfb91ecff38789d5f25986b6b71
p3731
sVCity
p3732
V\u6df1\u5733
p3733
sVSnsFlag
p3734
I0
sVDisplayName
p3735
g43
sVUniFriend
p3736
I0
sVMemberCount
p3737
I0
sVOwnerUin
p3738
I0
sVMemberList
p3739
g41
sVAlias
p3740
g43
sVPYQuanPin
p3741
Vdianyingyanchupiao
p3742
sVSignature
p3743
V\u5a31\u7968\u513f\u5b98\u65b9\u670d\u52a1\u53f7\u3002\u4e3a\u4f60\u63d0\u4f9b\u6700\u65b0\u6700high\u7684\u5a31\u4e50\u7968\u52a1\u4fe1\u606f\u53ca\u8d2d\u7968\u670d\u52a1\uff0c\u89e3\u51b3\u4f60\u5728\u8d2d\u7968\u4e2d\u9047\u5230\u7684\u6240\u6709\u95ee\u9898\u3002
p3744
sVRemarkPYInitial
p3745
g43
sVContactFlag
p3746
I3
sVUin
p3747
I0
sVNickName
p3748
V\u7535\u5f71\u6f14\u51fa\u7968
p3749
sVAppAccountFlag
p3750
I0
sVVerifyFlag
p3751
I24
sVRemarkPYQuanPin
p3752
g43
sVHeadImgUrl
p3753
V/cgi-bin/mmwebwx-bin/webwxgeticon?seq=635221901&username=@810a820778283e576850e72fed428bfd03348dfb91ecff38789d5f25986b6b71&skey=@crypt_9fe8734c_86fe8e39d9196b957da5836cfda1b519
p3754
sVKeyWord
p3755
g43
sVProvince
p3756
V\u5e7f\u4e1c
p3757
sVPYInitial
p3758
VDYYCP
p3759
sVRemarkName
p3760
g43
sVIsOwner
p3761
I0
sVSex
p3762
I0
sVStarFriend
p3763
I0
sVHideInputBarFlag
p3764
I0
sVChatRoomId
p3765
I0
sVEncryChatRoomId
p3766
g43
sVAttrStatus
p3767
I98307
sVStatues
p3768
I0
stp3769
Rp3770
I1
bag25
(g3559
g30
(dp3771
VUserName
p3772
V@2580f3737ca3f8f46149a62e7659d87b
p3773
sVCity
p3774
V\u53a6\u95e8
p3775
sVSnsFlag
p3776
I0
sVDisplayName
p3777
g43
sVUniFriend
p3778
I0
sVMemberCount
p3779
I0
sVOwnerUin
p3780
I0
sVMemberList
p3781
g41
sVAlias
p3782
g43
sVPYQuanPin
p3783
Vhuaqiaodaxuetushuguan
p3784
sVSignature
p3785
V\u4eb2\u7231\u7684\uff0c\u6709\u4ec0\u4e48\u95ee\u9898\u90fd\u53ef\u4ee5\u6572\u6211\u5662~ \u3010\u56fe\u56fe\u5de5\u4f5c\u65f6\u95f4\uff1a\u5468\u4e00 - \u5468\u4e948\uff1a:00-17:30\u3011 \u3010\u56fe\u4e66\u9986\u5f00\u9986\u65f6\u95f4\uff1a\u6cc9\u5dde\u6821\u533a7:30-22:00 \u53a6\u95e8\u6821\u533a6:40-22:15\u3011
p3786
sVRemarkPYInitial
p3787
g43
sVContactFlag
p3788
I3
sVUin
p3789
I0
sVNickName
p3790
V\u534e\u4fa8\u5927\u5b66\u56fe\u4e66\u9986
p3791
sVAppAccountFlag
p3792
I0
sVVerifyFlag
p3793
I24
sVRemarkPYQuanPin
p3794
g43
sVHeadImgUrl
p3795
V/cgi-bin/mmwebwx-bin/webwxgeticon?seq=637990889&username=@2580f3737ca3f8f46149a62e7659d87b&skey=@crypt_9fe8734c_86fe8e39d9196b957da5836cfda1b519
p3796
sVKeyWord
p3797
Vgh_
p3798
sVProvince
p3799
V\u798f\u5efa
p3800
sVPYInitial
p3801
VHQDXTSG
p3802
sVRemarkName
p3803
g43
sVIsOwner
p3804
I0
sVSex
p3805
I0
sVStarFriend
p3806
I0
sVHideInputBarFlag
p3807
I0
sVChatRoomId
p3808
I0
sVEncryChatRoomId
p3809
g43
sVAttrStatus
p3810
I0
sVStatues
p3811
I0
stp3812
Rp3813
I1
bag25
(g3559
g30
(dp3814
VUserName
p3815
V@f60544a65ccb108b4e0e0758a33d55c2
p3816
sVCity
p3817
V\u6cc9\u5dde
p3818
sVSnsFlag
p3819
I0
sVDisplayName
p3820
g43
sVUniFriend
p3821
I0
sVMemberCount
p3822
I0
sVOwnerUin
p3823
I0
sVMemberList
p3824
g41
sVAlias
p3825
g43
sVPYQuanPin
p3826
Vquanzhoushiqicheyunshuzonggongsi
p3827
sVSignature
p3828
V\u63d0\u4f9b\u5927\u6cc9\u5dde\u5730\u533a\u96c6\u5ba2\u8fd0\u8ba2\u7968\u3001\u65c5\u6e38\u4e1a\u52a1\u3001\u6c7d\u8f66\u79df\u8d41\u3001\u9152\u5e97\u9884\u8ba2\u3001\u8d27\u7269\u8fd0\u8f93\u4e8e\u4e00\u4f53\u7684\u7efc\u5408\u6027\u884c\u4e1a\u670d\u52a1
p3829
sVRemarkPYInitial
p3830
g43
sVContactFlag
p3831
I3
sVUin
p3832
I0
sVNickName
p3833
V\u6cc9\u5dde\u5e02\u6c7d\u8f66\u8fd0\u8f93\u603b\u516c\u53f8
p3834
sVAppAccountFlag
p3835
I0
sVVerifyFlag
p3836
I24
sVRemarkPYQuanPin
p3837
g43
sVHeadImgUrl
p3838
V/cgi-bin/mmwebwx-bin/webwxgeticon?seq=647650876&username=@f60544a65ccb108b4e0e0758a33d55c2&skey=@crypt_9fe8734c_86fe8e39d9196b957da5836cfda1b519
p3839
sVKeyWord
p3840
Vgh_
p3841
sVProvince
p3842
V\u798f\u5efa
p3843
sVPYInitial
p3844
VQZSQCYSZGS
p3845
sVRemarkName
p3846
g43
sVIsOwner
p3847
I0
sVSex
p3848
I0
sVStarFriend
p3849
I0
sVHideInputBarFlag
p3850
I0
sVChatRoomId
p3851
I0
sVEncryChatRoomId
p3852
g43
sVAttrStatus
p3853
I0
sVStatues
p3854
I0
stp3855
Rp3856
I1
bag25
(g3559
g30
(dp3857
VUserName
p3858
V@c0b9cbb74ac461e28df5e26f509449e6
p3859
sVCity
p3860
V\u53a6\u95e8
p3861
sVSnsFlag
p3862
I0
sVDisplayName
p3863
g43
sVUniFriend
p3864
I0
sVMemberCount
p3865
I0
sVOwnerUin
p3866
I0
sVMemberList
p3867
g41
sVAlias
p3868
g43
sVPYQuanPin
p3869
Vhuayuanshangcheng
p3870
sVSignature
p3871
V\u54c1\u724c\u5ba3\u4f20
p3872
sVRemarkPYInitial
p3873
g43
sVContactFlag
p3874
I3
sVUin
p3875
I0
sVNickName
p3876
V\u534e\u56ed\u5546\u57ce
p3877
sVAppAccountFlag
p3878
I0
sVVerifyFlag
p3879
I8
sVRemarkPYQuanPin
p3880
g43
sVHeadImgUrl
p3881
V/cgi-bin/mmwebwx-bin/webwxgeticon?seq=647651180&username=@c0b9cbb74ac461e28df5e26f509449e6&skey=@crypt_9fe8734c_86fe8e39d9196b957da5836cfda1b519
p3882
sVKeyWord
p3883
Vgh_
p3884
sVProvince
p3885
V\u798f\u5efa
p3886
sVPYInitial
p3887
VHYSC
p3888
sVRemarkName
p3889
g43
sVIsOwner
p3890
I0
sVSex
p3891
I0
sVStarFriend
p3892
I0
sVHideInputBarFlag
p3893
I0
sVChatRoomId
p3894
I0
sVEncryChatRoomId
p3895
g43
sVAttrStatus
p3896
I0
sVStatues
p3897
I0
stp3898
Rp3899
I1
bag25
(g3559
g30
(dp3900
VUserName
p3901
V@b7b5c312c60eb6883640f317d18dd187
p3902
sVCity
p3903
V\u9ec4\u6d66
p3904
sVSnsFlag
p3905
I0
sVDisplayName
p3906
g43
sVUniFriend
p3907
I0
sVMemberCount
p3908
I0
sVOwnerUin
p3909
I0
sVMemberList
p3910
g41
sVAlias
p3911
g43
sVPYQuanPin
p3912
Vqiangakefu
p3913
sVSignature
p3914
V\u94b1\u5496\u5b98\u65b9\u5ba2\u670d\u53f7\uff1a\u5ba2\u670d\u5b9e\u65f6\u5728\u7ebf\u7b54\u7591\uff0c\u540c\u65f6\u63d0\u4f9b\u63d0\u73b0\u6fc0\u6d3b\u3001\u65b0\u4efb\u52a1\u901a\u77e5\u3001\u4ea7\u54c1\u6700\u65b0\u52a8\u6001\u67e5\u8be2\u7b49\u529f\u80fd\u3002
p3915
sVRemarkPYInitial
p3916
g43
sVContactFlag
p3917
I3
sVUin
p3918
I0
sVNickName
p3919
V\u94b1\u5496\u5ba2\u670d
p3920
sVAppAccountFlag
p3921
I0
sVVerifyFlag
p3922
I24
sVRemarkPYQuanPin
p3923
g43
sVHeadImgUrl
p3924
V/cgi-bin/mmwebwx-bin/webwxgeticon?seq=648486683&username=@b7b5c312c60eb6883640f317d18dd187&skey=@crypt_9fe8734c_86fe8e39d9196b957da5836cfda1b519
p3925
sVKeyWord
p3926
Vgh_
p3927
sVProvince
p3928
V\u4e0a\u6d77
p3929
sVPYInitial
p3930
VQGKF
p3931
sVRemarkName
p3932
g43
sVIsOwner
p3933
I0
sVSex
p3934
I0
sVStarFriend
p3935
I0
sVHideInputBarFlag
p3936
I0
sVChatRoomId
p3937
I0
sVEncryChatRoomId
p3938
g43
sVAttrStatus
p3939
I0
sVStatues
p3940
I0
stp3941
Rp3942
I1
bag25
(g3559
g30
(dp3943
VUserName
p3944
V@1acd88489625d4c8cef9bbc75c38c726
p3945
sVCity
p3946
V\u671d\u9633
p3947
sVSnsFlag
p3948
I0
sVDisplayName
p3949
g43
sVUniFriend
p3950
I0
sVMemberCount
p3951
I0
sVOwnerUin
p3952
I0
sVMemberList
p3953
g41
sVAlias
p3954
g43
sVPYQuanPin
p3955
Vhaodongxichuansongmen
p3956
sVSignature
p3957
V\u201c\u597d\u4e1c\u897f\u4f20\u9001\u95e8\u201d\u4e3a\u60a8\u7cbe\u9009\u4e13\u4e1a\u77e5\u8bc6\uff0c\u63d0\u4f9b\u5927\u6570\u636e\uff0c\u673a\u5668\u5b66\u4e60\uff0cWeb\u6280\u672f\u7b49\u65b9\u9762\u7684\u524d\u6cbf\u7cbe\u534e\u4fe1\u606f\u3002
p3958
sVRemarkPYInitial
p3959
g43
sVContactFlag
p3960
I1
sVUin
p3961
I0
sVNickName
p3962
V\u597d\u4e1c\u897f\u4f20\u9001\u95e8
p3963
sVAppAccountFlag
p3964
I0
sVVerifyFlag
p3965
I8
sVRemarkPYQuanPin
p3966
g43
sVHeadImgUrl
p3967
V/cgi-bin/mmwebwx-bin/webwxgeticon?seq=644013078&username=@1acd88489625d4c8cef9bbc75c38c726&skey=@crypt_9fe8734c_86fe8e39d9196b957da5836cfda1b519
p3968
sVKeyWord
p3969
Vgh_
p3970
sVProvince
p3971
V\u5317\u4eac
p3972
sVPYInitial
p3973
VHDXCSM
p3974
sVRemarkName
p3975
g43
sVIsOwner
p3976
I0
sVSex
p3977
I0
sVStarFriend
p3978
I0
sVHideInputBarFlag
p3979
I0
sVChatRoomId
p3980
I0
sVEncryChatRoomId
p3981
g43
sVAttrStatus
p3982
I0
sVStatues
p3983
I0
stp3984
Rp3985
I1
bag25
(g3559
g30
(dp3986
VUserName
p3987
V@ad3e407ac55ff7173d5b928b11f02e9f
p3988
sVCity
p3989
V\u676d\u5dde
p3990
sVSnsFlag
p3991
I0
sVDisplayName
p3992
g43
sVUniFriend
p3993
I0
sVMemberCount
p3994
I0
sVOwnerUin
p3995
I0
sVMemberList
p3996
g41
sVAlias
p3997
g43
sVPYQuanPin
p3998
Vmanongwang
p3999
sVSignature
p4000
V\u7801\u519c\u7f51\u662f\u4e00\u4e2a\u4e13\u6ce8\u7a0b\u5e8f\u5458\u7f16\u7a0b\u8d44\u6599\u3001\u7f16\u7a0b\u7ecf\u9a8c\u3001\u804c\u573a\u9762\u8bd5\u5206\u4eab\u7684\u535a\u5ba2\u5e73\u53f0,\u5e2e\u52a9\u7a0b\u5e8f\u5458\u5728\u7f16\u7a0b\u5f00\u53d1\u4e2d\u83b7\u53d6\u7b2c\u4e00\u624b\u7684\u5b9e\u7528\u8d44\u6599
p4001
sVRemarkPYInitial
p4002
g43
sVContactFlag
p4003
I1
sVUin
p4004
I0
sVNickName
p4005
V\u7801\u519c\u7f51
p4006
sVAppAccountFlag
p4007
I0
sVVerifyFlag
p4008
I8
sVRemarkPYQuanPin
p4009
g43
sVHeadImgUrl
p4010
V/cgi-bin/mmwebwx-bin/webwxgeticon?seq=648486091&username=@ad3e407ac55ff7173d5b928b11f02e9f&skey=@crypt_9fe8734c_86fe8e39d9196b957da5836cfda1b519
p4011
sVKeyWord
p4012
Vgh_
p4013
sVProvince
p4014
V\u6d59\u6c5f
p4015
sVPYInitial
p4016
VMNW
p4017
sVRemarkName
p4018
g43
sVIsOwner
p4019
I0
sVSex
p4020
I0
sVStarFriend
p4021
I0
sVHideInputBarFlag
p4022
I0
sVChatRoomId
p4023
I0
sVEncryChatRoomId
p4024
g43
sVAttrStatus
p4025
I0
sVStatues
p4026
I0
stp4027
Rp4028
I1
bag25
(g3559
g30
(dp4029
VUserName
p4030
V@daed45244f8e757f6027c114806cbafe
p4031
sVCity
p4032
V\u6d77\u6dc0
p4033
sVSnsFlag
p4034
I0
sVDisplayName
p4035
g43
sVUniFriend
p4036
I0
sVMemberCount
p4037
I0
sVOwnerUin
p4038
I0
sVMemberList
p4039
g41
sVAlias
p4040
g43
sVPYQuanPin
p4041
VGATEzhongwenziranyuyanchuli
p4042
sVSignature
p4043
V\u4ecb\u7ecdGATE\uff08\u901a\u7528\u6587\u672c\u5904\u7406\u6846\u67b6\uff09\u3001\u4e2d\u6587\u81ea\u7136\u8bed\u8a00\u5904\u7406\u3001\u5927\u6570\u636e\u3001\u53ef\u89c6\u5316\u7b49\u9886\u57df\u7684\u76f8\u5173\u7406\u8bba\u3001\u6280\u672f\u548c\u65b9\u6cd5\u3002
p4044
sVRemarkPYInitial
p4045
g43
sVContactFlag
p4046
I1
sVUin
p4047
I0
sVNickName
p4048
VGATE\u4e2d\u6587\u81ea\u7136\u8bed\u8a00\u5904\u7406
p4049
sVAppAccountFlag
p4050
I0
sVVerifyFlag
p4051
I8
sVRemarkPYQuanPin
p4052
g43
sVHeadImgUrl
p4053
V/cgi-bin/mmwebwx-bin/webwxgeticon?seq=647650453&username=@daed45244f8e757f6027c114806cbafe&skey=@crypt_9fe8734c_86fe8e39d9196b957da5836cfda1b519
p4054
sVKeyWord
p4055
Vgh_
p4056
sVProvince
p4057
V\u5317\u4eac
p4058
sVPYInitial
p4059
VGATEZWZRYYCL
p4060
sVRemarkName
p4061
g43
sVIsOwner
p4062
I0
sVSex
p4063
I0
sVStarFriend
p4064
I0
sVHideInputBarFlag
p4065
I0
sVChatRoomId
p4066
I0
sVEncryChatRoomId
p4067
g43
sVAttrStatus
p4068
I0
sVStatues
p4069
I0
stp4070
Rp4071
I1
bag25
(g3559
g30
(dp4072
VUserName
p4073
V@510e8270a5b09b73be3e18bbf9c15edf
p4074
sVCity
p4075
V\u671d\u9633
p4076
sVSnsFlag
p4077
I0
sVDisplayName
p4078
g43
sVUniFriend
p4079
I0
sVMemberCount
p4080
I0
sVOwnerUin
p4081
I0
sVMemberList
p4082
g41
sVAlias
p4083
g43
sVPYQuanPin
p4084
VNLPziranyuyanchuli
p4085
sVSignature
p4086
V\u81f4\u529b\u4e8e\u81ea\u7136\u8bed\u8a00\u5904\u7406\u6280\u672f\u9886\u57df\u7684\u8d44\u8baf\u4f20\u64ad\u4e0e\u77e5\u8bc6\u5171\u4eab
p4087
sVRemarkPYInitial
p4088
g43
sVContactFlag
p4089
I1
sVUin
p4090
I0
sVNickName
p4091
VNLP\u81ea\u7136\u8bed\u8a00\u5904\u7406
p4092
sVAppAccountFlag
p4093
I0
sVVerifyFlag
p4094
I8
sVRemarkPYQuanPin
p4095
g43
sVHeadImgUrl
p4096
V/cgi-bin/mmwebwx-bin/webwxgeticon?seq=647650456&username=@510e8270a5b09b73be3e18bbf9c15edf&skey=@crypt_9fe8734c_86fe8e39d9196b957da5836cfda1b519
p4097
sVKeyWord
p4098
Vgh_
p4099
sVProvince
p4100
V\u5317\u4eac
p4101
sVPYInitial
p4102
VNLPZRYYCL
p4103
sVRemarkName
p4104
g43
sVIsOwner
p4105
I0
sVSex
p4106
I0
sVStarFriend
p4107
I0
sVHideInputBarFlag
p4108
I0
sVChatRoomId
p4109
I0
sVEncryChatRoomId
p4110
g43
sVAttrStatus
p4111
I0
sVStatues
p4112
I0
stp4113
Rp4114
I1
bag25
(g3559
g30
(dp4115
VUserName
p4116
V@8e2bf2c176805e5c1b1954903d1bbeee
p4117
sVCity
p4118
V\u6cc9\u5dde
p4119
sVSnsFlag
p4120
I0
sVDisplayName
p4121
g43
sVUniFriend
p4122
I0
sVMemberCount
p4123
I0
sVOwnerUin
p4124
I0
sVMemberList
p4125
g41
sVAlias
p4126
g43
sVPYQuanPin
p4127
Vlichengouzhangshanggonggongfalvfuwupingtai
p4128
sVSignature
p4129
V\u4e3a\u793e\u533a\u5c45\u6c11\u63d0\u4f9b\u65b9\u4fbf\u3001\u5feb\u6377\u3001\u53ca\u65f6\u7684\u6cd5\u5f8b\u670d\u52a1\u3002
p4130
sVRemarkPYInitial
p4131
g43
sVContactFlag
p4132
I1
sVUin
p4133
I0
sVNickName
p4134
V\u9ca4\u57ce\u533a\u638c\u4e0a\u516c\u5171\u6cd5\u5f8b\u670d\u52a1\u5e73\u53f0
p4135
sVAppAccountFlag
p4136
I0
sVVerifyFlag
p4137
I24
sVRemarkPYQuanPin
p4138
g43
sVHeadImgUrl
p4139
V/cgi-bin/mmwebwx-bin/webwxgeticon?seq=648500481&username=@8e2bf2c176805e5c1b1954903d1bbeee&skey=@crypt_9fe8734c_86fe8e39d9196b957da5836cfda1b519
p4140
sVKeyWord
p4141
Vgh_
p4142
sVProvince
p4143
V\u798f\u5efa
p4144
sVPYInitial
p4145
VLCOZSGGFLFWPT
p4146
sVRemarkName
p4147
g43
sVIsOwner
p4148
I0
sVSex
p4149
I0
sVStarFriend
p4150
I0
sVHideInputBarFlag
p4151
I0
sVChatRoomId
p4152
I0
sVEncryChatRoomId
p4153
g43
sVAttrStatus
p4154
I0
sVStatues
p4155
I0
stp4156
Rp4157
I1
bag25
(g3559
g30
(dp4158
VUserName
p4159
V@06bdcf9b996e5dafc67e10925f808656
p4160
sVCity
p4161
g43
sVSnsFlag
p4162
I0
sVDisplayName
p4163
g43
sVUniFriend
p4164
I0
sVMemberCount
p4165
I0
sVOwnerUin
p4166
I0
sVMemberList
p4167
g41
sVAlias
p4168
g43
sVPYQuanPin
p4169
Vxunfeikaifangpingtai
p4170
sVSignature
p4171
V\u4ee5\u8bed\u97f3\u6280\u672f\u4e3a\u6838\u5fc3\u7684\u4eba\u5de5\u667a\u80fd\u5f00\u653e\u5e73\u53f0\uff0c\u8bbf\u95ee[xfyun.cn]\u514d\u8d39\u63a5\u5165\u5404\u7c7b\u4e91\u7aef\u4eba\u5de5\u667a\u80fd\u6280\u672f\u670d\u52a1\u3002  \u5173\u6ce8\u8baf\u98de\u5f00\u653e\u5e73\u53f0\u670d\u52a1\u53f7\uff1a\u2460\u968f\u65f6\u67e5\u770b\u5e94\u7528\u6570\u636e\u3001\u8ddf\u8fdb\u5ba1\u6838\u8fdb\u5ea6\u2461\u83b7\u53d6\u6700\u65b0\u6280\u672f\u5e72\u8d27\u3001\u4e86\u89e3\u8baf\u98de\u5148\u950b\u79d1\u6280\u2462\u5404\u7c7b\u6280\u672f\u95ee\u9898\u7b54\u7591\u3001\u4e1a\u52a1\u9700\u6c42\u521d\u6b65\u5bf9\u63a5\u3002
p4172
sVRemarkPYInitial
p4173
g43
sVContactFlag
p4174
I1
sVUin
p4175
I0
sVNickName
p4176
V\u8baf\u98de\u5f00\u653e\u5e73\u53f0
p4177
sVAppAccountFlag
p4178
I0
sVVerifyFlag
p4179
I24
sVRemarkPYQuanPin
p4180
g43
sVHeadImgUrl
p4181
V/cgi-bin/mmwebwx-bin/webwxgeticon?seq=648503460&username=@06bdcf9b996e5dafc67e10925f808656&skey=@crypt_9fe8734c_86fe8e39d9196b957da5836cfda1b519
p4182
sVKeyWord
p4183
Vgh_
p4184
sVProvince
p4185
V\u5b89\u5fbd
p4186
sVPYInitial
p4187
VXFKFPT
p4188
sVRemarkName
p4189
g43
sVIsOwner
p4190
I0
sVSex
p4191
I0
sVStarFriend
p4192
I0
sVHideInputBarFlag
p4193
I0
sVChatRoomId
p4194
I0
sVEncryChatRoomId
p4195
g43
sVAttrStatus
p4196
I0
sVStatues
p4197
I0
stp4198
Rp4199
I1
bag25
(g3559
g30
(dp4200
VUserName
p4201
V@bb8896af9ac57d9291d6c8ea5bb98e46
p4202
sVCity
p4203
V\u6d66\u4e1c\u65b0\u533a
p4204
sVSnsFlag
p4205
I0
sVDisplayName
p4206
g43
sVUniFriend
p4207
I0
sVMemberCount
p4208
I0
sVOwnerUin
p4209
I0
sVMemberList
p4210
g41
sVAlias
p4211
g43
sVPYQuanPin
p4212
Vshouyinbaotehui
p4213
sVSignature
p4214
V\u9762\u5411\u901a\u8054\u6536\u94f6\u5b9d\u4e1a\u52a1\u7684\u7528\u6237\u63d0\u4f9b\u76f8\u5173\u670d\u52a1\u3002
p4215
sVRemarkPYInitial
p4216
g43
sVContactFlag
p4217
I3
sVUin
p4218
I0
sVNickName
p4219
V\u6536\u94f6\u5b9d\u7279\u60e0
p4220
sVAppAccountFlag
p4221
I0
sVVerifyFlag
p4222
I24
sVRemarkPYQuanPin
p4223
g43
sVHeadImgUrl
p4224
V/cgi-bin/mmwebwx-bin/webwxgeticon?seq=648505033&username=@bb8896af9ac57d9291d6c8ea5bb98e46&skey=@crypt_9fe8734c_86fe8e39d9196b957da5836cfda1b519
p4225
sVKeyWord
p4226
Vgh_
p4227
sVProvince
p4228
V\u4e0a\u6d77
p4229
sVPYInitial
p4230
VSYBTH
p4231
sVRemarkName
p4232
g43
sVIsOwner
p4233
I0
sVSex
p4234
I0
sVStarFriend
p4235
I0
sVHideInputBarFlag
p4236
I0
sVChatRoomId
p4237
I0
sVEncryChatRoomId
p4238
g43
sVAttrStatus
p4239
I0
sVStatues
p4240
I0
stp4241
Rp4242
I1
bag25
(g3559
g30
(dp4243
VUserName
p4244
V@269069f03f99528d5688edfd8e623103
p4245
sVCity
p4246
V\u5e7f\u5dde
p4247
sVSnsFlag
p4248
I0
sVDisplayName
p4249
g43
sVUniFriend
p4250
I0
sVMemberCount
p4251
I0
sVOwnerUin
p4252
I0
sVMemberList
p4253
g41
sVAlias
p4254
g43
sVPYQuanPin
p4255
Vweixinkaifazhe
p4256
sVSignature
p4257
V\u53d1\u5e03\u5fae\u4fe1\u5f00\u653e\u5e73\u53f0\u548c\u516c\u4f17\u5e73\u53f0\u7684\u5f00\u53d1\u8005\u76f8\u5173\u6d88\u606f\uff0c\u5e2e\u52a9\u4f60\u66f4\u597d\u5730\u8fdb\u884c\u5fae\u4fe1\u76f8\u5173\u5f00\u53d1\u3002
p4258
sVRemarkPYInitial
p4259
g43
sVContactFlag
p4260
I1
sVUin
p4261
I0
sVNickName
p4262
V\u5fae\u4fe1\u5f00\u53d1\u8005
p4263
sVAppAccountFlag
p4264
I0
sVVerifyFlag
p4265
I24
sVRemarkPYQuanPin
p4266
g43
sVHeadImgUrl
p4267
V/cgi-bin/mmwebwx-bin/webwxgeticon?seq=648511197&username=@269069f03f99528d5688edfd8e623103&skey=@crypt_9fe8734c_86fe8e39d9196b957da5836cfda1b519
p4268
sVKeyWord
p4269
Vgh_
p4270
sVProvince
p4271
V\u5e7f\u4e1c
p4272
sVPYInitial
p4273
VWXKFZ
p4274
sVRemarkName
p4275
g43
sVIsOwner
p4276
I0
sVSex
p4277
I0
sVStarFriend
p4278
I0
sVHideInputBarFlag
p4279
I0
sVChatRoomId
p4280
I0
sVEncryChatRoomId
p4281
g43
sVAttrStatus
p4282
I0
sVStatues
p4283
I0
stp4284
Rp4285
I1
bag25
(g3559
g30
(dp4286
VUserName
p4287
V@465aff7f75ec647b9261a23c9539003c
p4288
sVCity
p4289
V\u5e7f\u5dde
p4290
sVSnsFlag
p4291
I0
sVDisplayName
p4292
g43
sVUniFriend
p4293
I0
sVMemberCount
p4294
I0
sVOwnerUin
p4295
I0
sVMemberList
p4296
g41
sVAlias
p4297
g43
sVPYQuanPin
p4298
Vgongzhongpingtaianquanzhushou
p4299
sVSignature
p4300
V\u63d0\u4f9b\u5fae\u4fe1\u516c\u4f17\u53f7\u767b\u5f55\u548c\u7fa4\u53d1\u7b49\u5b89\u5168\u64cd\u4f5c\uff0c\u5728\u624b\u673a\u4e0a\u67e5\u6536\u6d88\u606f\u3001\u8bc4\u8bba\u3001\u8d5e\u8d4f\uff0c\u65b0\u5efa\u7fa4\u53d1\u548c\u67e5\u770b\u7fa4\u53d1\u5386\u53f2\u3002
p4301
sVRemarkPYInitial
p4302
g43
sVContactFlag
p4303
I3
sVUin
p4304
I0
sVNickName
p4305
V\u516c\u4f17\u5e73\u53f0\u5b89\u5168\u52a9\u624b
p4306
sVAppAccountFlag
p4307
I0
sVVerifyFlag
p4308
I24
sVRemarkPYQuanPin
p4309
g43
sVHeadImgUrl
p4310
V/cgi-bin/mmwebwx-bin/webwxgeticon?seq=648511261&username=@465aff7f75ec647b9261a23c9539003c&skey=@crypt_9fe8734c_86fe8e39d9196b957da5836cfda1b519
p4311
sVKeyWord
p4312
Vmph
p4313
sVProvince
p4314
V\u5e7f\u4e1c
p4315
sVPYInitial
p4316
VGZPTAQZS
p4317
sVRemarkName
p4318
g43
sVIsOwner
p4319
I0
sVSex
p4320
I0
sVStarFriend
p4321
I0
sVHideInputBarFlag
p4322
I0
sVChatRoomId
p4323
I0
sVEncryChatRoomId
p4324
g43
sVAttrStatus
p4325
I98459
sVStatues
p4326
I0
stp4327
Rp4328
I1
bag25
(g3559
g30
(dp4329
VUserName
p4330
V@71f4bb65f46d3de5b087c5bf747f9c10
p4331
sVCity
p4332
V\u6cc9\u5dde
p4333
sVSnsFlag
p4334
I0
sVDisplayName
p4335
g43
sVUniFriend
p4336
I0
sVMemberCount
p4337
I0
sVOwnerUin
p4338
I0
sVMemberList
p4339
g41
sVAlias
p4340
g43
sVPYQuanPin
p4341
VYouBikeweixiaozixingche
p4342
sVSignature
p4343
V\u6cc9\u5dde\u5e02\u516c\u5171\u81ea\u884c\u8f66\u9879\u76ee\u8fd0\u8425\u65b9
p4344
sVRemarkPYInitial
p4345
g43
sVContactFlag
p4346
I1
sVUin
p4347
I0
sVNickName
p4348
VYouBike\u5fae\u7b11\u81ea\u884c\u8f66
p4349
sVAppAccountFlag
p4350
I0
sVVerifyFlag
p4351
I24
sVRemarkPYQuanPin
p4352
g43
sVHeadImgUrl
p4353
V/cgi-bin/mmwebwx-bin/webwxgeticon?seq=648519522&username=@71f4bb65f46d3de5b087c5bf747f9c10&skey=@crypt_9fe8734c_86fe8e39d9196b957da5836cfda1b519
p4354
sVKeyWord
p4355
Vgh_
p4356
sVProvince
p4357
V\u798f\u5efa
p4358
sVPYInitial
p4359
VYOUBIKEWXZXC
p4360
sVRemarkName
p4361
g43
sVIsOwner
p4362
I0
sVSex
p4363
I0
sVStarFriend
p4364
I0
sVHideInputBarFlag
p4365
I0
sVChatRoomId
p4366
I0
sVEncryChatRoomId
p4367
g43
sVAttrStatus
p4368
I0
sVStatues
p4369
I0
stp4370
Rp4371
I1
bag25
(g3559
g30
(dp4372
VUserName
p4373
V@34d4533dff043e2f8934129b41d0004f
p4374
sVCity
p4375
g43
sVSnsFlag
p4376
I0
sVDisplayName
p4377
g43
sVUniFriend
p4378
I0
sVMemberCount
p4379
I0
sVOwnerUin
p4380
I0
sVMemberList
p4381
g41
sVAlias
p4382
g43
sVPYQuanPin
p4383
Vdiaoqianyanerxinzhushou
p4384
sVSignature
p4385
V\u3010\u5b98\u65b9\u52a9\u624b\u2705\u3011\u6389\u94b1\u773c\u513f\uff0c\u6700\u706b\u7206\u7684\u5e94\u7528\u8bd5\u73a9\u5e73\u53f0\uff0c\u65e8\u5728\u4e3a\u7528\u6237\u63d0\u4f9b\u4e00\u4e2a\u5229\u7528\u788e\u7247\u5316\u7684\u65f6\u95f4\u8bd5\u73a9\u5e94\u7528\u6765\u83b7\u53d6\u62a5\u916c\u7684\u5e73\u53f0\uff0c\u4eba\u4eba\u90fd\u662f\u5e94\u7528\u4f53\u9a8c\u5e08
p4386
sVRemarkPYInitial
p4387
g43
sVContactFlag
p4388
I1
sVUin
p4389
I0
sVNickName
p4390
V\u6389\u94b1\u773c\u513f\u65b0\u52a9\u624b
p4391
sVAppAccountFlag
p4392
I0
sVVerifyFlag
p4393
I24
sVRemarkPYQuanPin
p4394
g43
sVHeadImgUrl
p4395
V/cgi-bin/mmwebwx-bin/webwxgeticon?seq=648519633&username=@34d4533dff043e2f8934129b41d0004f&skey=@crypt_9fe8734c_86fe8e39d9196b957da5836cfda1b519
p4396
sVKeyWord
p4397
Vgh_
p4398
sVProvince
p4399
g43
sVPYInitial
p4400
VDQYEXZS
p4401
sVRemarkName
p4402
g43
sVIsOwner
p4403
I0
sVSex
p4404
I0
sVStarFriend
p4405
I0
sVHideInputBarFlag
p4406
I0
sVChatRoomId
p4407
I0
sVEncryChatRoomId
p4408
g43
sVAttrStatus
p4409
I0
sVStatues
p4410
I0
stp4411
Rp4412
I1
bag25
(g3559
g30
(dp4413
VUserName
p4414
V@89ea50dfbaaa28035dc9b5b9340e6a86
p4415
sVCity
p4416
V\u671d\u9633
p4417
sVSnsFlag
p4418
I0
sVDisplayName
p4419
g43
sVUniFriend
p4420
I0
sVMemberCount
p4421
I0
sVOwnerUin
p4422
I0
sVMemberList
p4423
g41
sVAlias
p4424
g43
sVPYQuanPin
p4425
Vfenghuangwang
p4426
sVSignature
p4427
V\u51e4\u51f0\u7f51\u8d44\u8baf\u4e2d\u5fc3\u552f\u4e00\u5b98\u65b9\u5fae\u4fe1\u516c\u4f17\u53f7\uff0c\u7b2c\u4e00\u65f6\u95f4\u5448\u73b0\u654f\u611f\u4e8b\u4ef6\uff0c\u7b2c\u4e00\u65f6\u95f4\u89e3\u8bfb\u70ed\u95e8\u65b0\u95fb\u3002
p4428
sVRemarkPYInitial
p4429
g43
sVContactFlag
p4430
I1
sVUin
p4431
I0
sVNickName
p4432
V\u51e4\u51f0\u7f51
p4433
sVAppAccountFlag
p4434
I0
sVVerifyFlag
p4435
I8
sVRemarkPYQuanPin
p4436
g43
sVHeadImgUrl
p4437
V/cgi-bin/mmwebwx-bin/webwxgeticon?seq=639041687&username=@89ea50dfbaaa28035dc9b5b9340e6a86&skey=@crypt_9fe8734c_86fe8e39d9196b957da5836cfda1b519
p4438
sVKeyWord
p4439
Vgh_
p4440
sVProvince
p4441
V\u5317\u4eac
p4442
sVPYInitial
p4443
VFHW
p4444
sVRemarkName
p4445
g43
sVIsOwner
p4446
I0
sVSex
p4447
I0
sVStarFriend
p4448
I0
sVHideInputBarFlag
p4449
I0
sVChatRoomId
p4450
I0
sVEncryChatRoomId
p4451
g43
sVAttrStatus
p4452
I0
sVStatues
p4453
I0
stp4454
Rp4455
I1
bag25
(g3559
g30
(dp4456
VUserName
p4457
V@607a9952e8cb3ad247ccf75f0215b961
p4458
sVCity
p4459
V\u6e1d\u5317
p4460
sVSnsFlag
p4461
I0
sVDisplayName
p4462
g43
sVUniFriend
p4463
I0
sVMemberCount
p4464
I0
sVOwnerUin
p4465
I0
sVMemberList
p4466
g41
sVAlias
p4467
g43
sVPYQuanPin
p4468
Vjisuanjiyingyongwenzhai
p4469
sVSignature
p4470
V\u300a\u8ba1\u7b97\u673a\u5e94\u7528\u6587\u6458\u300b\u6742\u5fd7\uff0c\u5b98\u65b9\u516c\u4f17\u8d26\u53f7\u3002\u5206\u4eab\u79fb\u52a8\u4e92\u8054\u7f51\u7684\u7cbe\u5f69\u3002
p4471
sVRemarkPYInitial
p4472
g43
sVContactFlag
p4473
I1
sVUin
p4474
I0
sVNickName
p4475
V\u8ba1\u7b97\u673a\u5e94\u7528\u6587\u6458
p4476
sVAppAccountFlag
p4477
I0
sVVerifyFlag
p4478
I24
sVRemarkPYQuanPin
p4479
g43
sVHeadImgUrl
p4480
V/cgi-bin/mmwebwx-bin/webwxgeticon?seq=641697047&username=@607a9952e8cb3ad247ccf75f0215b961&skey=@crypt_9fe8734c_86fe8e39d9196b957da5836cfda1b519
p4481
sVKeyWord
p4482
Vgh_
p4483
sVProvince
p4484
V\u91cd\u5e86
p4485
sVPYInitial
p4486
VJSJYYWZ
p4487
sVRemarkName
p4488
g43
sVIsOwner
p4489
I0
sVSex
p4490
I0
sVStarFriend
p4491
I0
sVHideInputBarFlag
p4492
I0
sVChatRoomId
p4493
I0
sVEncryChatRoomId
p4494
g43
sVAttrStatus
p4495
I0
sVStatues
p4496
I0
stp4497
Rp4498
I1
bag25
(g3559
g30
(dp4499
VUserName
p4500
V@6b6d4077cd8ead69b2609d8c271a884e
p4501
sVCity
p4502
V\u95f8\u5317
p4503
sVSnsFlag
p4504
I0
sVDisplayName
p4505
g43
sVUniFriend
p4506
I0
sVMemberCount
p4507
I0
sVOwnerUin
p4508
I0
sVMemberList
p4509
g41
sVAlias
p4510
g43
sVPYQuanPin
p4511
V36dashuju
p4512
sVSignature
p4513
V\u5173\u6ce8\u5927\u6570\u636e\u548c\u4e92\u8054\u7f51\u8d8b\u52bf\uff0c\u6700\u5927\uff0c\u6700\u6743\u5a01\uff0c\u6700\u5e72\u8d27\u7684\u5927\u6570\u636e\u5fae\u4fe1\u53f7\uff08dashuju36)\u3002\u5927\u6570\u636e\u7b2c\u4e00\u79d1\u6280\u5a92\u4f53\u3002\u4e0d\u53d1\u8f6f\u6587\uff0c\u53ea\u505a\u77e5\u8bc6\u5206\u4eab\u3002
p4514
sVRemarkPYInitial
p4515
g43
sVContactFlag
p4516
I1
sVUin
p4517
I0
sVNickName
p4518
V36\u5927\u6570\u636e
p4519
sVAppAccountFlag
p4520
I0
sVVerifyFlag
p4521
I24
sVRemarkPYQuanPin
p4522
g43
sVHeadImgUrl
p4523
V/cgi-bin/mmwebwx-bin/webwxgeticon?seq=648482144&username=@6b6d4077cd8ead69b2609d8c271a884e&skey=@crypt_9fe8734c_86fe8e39d9196b957da5836cfda1b519
p4524
sVKeyWord
p4525
Vgh_
p4526
sVProvince
p4527
V\u4e0a\u6d77
p4528
sVPYInitial
p4529
V36DSJ
p4530
sVRemarkName
p4531
g43
sVIsOwner
p4532
I0
sVSex
p4533
I0
sVStarFriend
p4534
I0
sVHideInputBarFlag
p4535
I0
sVChatRoomId
p4536
I0
sVEncryChatRoomId
p4537
g43
sVAttrStatus
p4538
I0
sVStatues
p4539
I0
stp4540
Rp4541
I1
bag25
(g3559
g30
(dp4542
VUserName
p4543
V@d761469a6ba3ef07bb0123960a08f3b8
p4544
sVCity
p4545
V\u6d77\u6dc0
p4546
sVSnsFlag
p4547
I0
sVDisplayName
p4548
g43
sVUniFriend
p4549
I0
sVMemberCount
p4550
I0
sVOwnerUin
p4551
I0
sVMemberList
p4552
g41
sVAlias
p4553
g43
sVPYQuanPin
p4554
Vzhongguojisuanjixuehui
p4555
sVSignature
p4556
V\u4e2d\u56fd\u8ba1\u7b97\u673a\u5b66\u4f1a\u5b98\u65b9\u8ba2\u9605\u53f7\uff0c\u4e3aCCF\u4f1a\u5458\u53ca\u8ba1\u7b97\u9886\u57df\u7684\u4e13\u4e1a\u4eba\u58eb\u670d\u52a1\u3002
p4557
sVRemarkPYInitial
p4558
g43
sVContactFlag
p4559
I1
sVUin
p4560
I0
sVNickName
p4561
V\u4e2d\u56fd\u8ba1\u7b97\u673a\u5b66\u4f1a
p4562
sVAppAccountFlag
p4563
I0
sVVerifyFlag
p4564
I24
sVRemarkPYQuanPin
p4565
g43
sVHeadImgUrl
p4566
V/cgi-bin/mmwebwx-bin/webwxgeticon?seq=641697038&username=@d761469a6ba3ef07bb0123960a08f3b8&skey=@crypt_9fe8734c_86fe8e39d9196b957da5836cfda1b519
p4567
sVKeyWord
p4568
Vgh_
p4569
sVProvince
p4570
V\u5317\u4eac
p4571
sVPYInitial
p4572
VZGJSJXH
p4573
sVRemarkName
p4574
g43
sVIsOwner
p4575
I0
sVSex
p4576
I0
sVStarFriend
p4577
I0
sVHideInputBarFlag
p4578
I0
sVChatRoomId
p4579
I0
sVEncryChatRoomId
p4580
g43
sVAttrStatus
p4581
I0
sVStatues
p4582
I0
stp4583
Rp4584
I1
bag25
(g3559
g30
(dp4585
VUserName
p4586
V@dfc93e3b04a29106efd13056e46b2dc0
p4587
sVCity
p4588
V\u6d77\u6dc0
p4589
sVSnsFlag
p4590
I0
sVDisplayName
p4591
g43
sVUniFriend
p4592
I0
sVMemberCount
p4593
I0
sVOwnerUin
p4594
I0
sVMemberList
p4595
g41
sVAlias
p4596
g43
sVPYQuanPin
p4597
VtengxunNBA
p4598
sVSignature
p4599
V\u817e\u8baf\u7f51NBA\u9891\u9053\u5b98\u65b9\u5fae\u4fe1\uff0c\u63d0\u4f9bNBA\u6700\u65b0\u8d5b\u51b5\u3001\u7403\u661f\u52a8\u6001\u3001\u76f4\u64ad\u9884\u544a\u3001\u89c6\u9891\u3001\u6570\u636e\u3001\u56fe\u7247\u3001\u4e13\u9898\u3001\u82b1\u8fb9\u3001\u88c5\u5907\u7b49\u5404\u7c7b\u6d77\u91cf\u4fe1\u606f\u3002
p4600
sVRemarkPYInitial
p4601
g43
sVContactFlag
p4602
I1
sVUin
p4603
I0
sVNickName
p4604
V\u817e\u8bafNBA
p4605
sVAppAccountFlag
p4606
I0
sVVerifyFlag
p4607
I24
sVRemarkPYQuanPin
p4608
g43
sVHeadImgUrl
p4609
V/cgi-bin/mmwebwx-bin/webwxgeticon?seq=644010300&username=@dfc93e3b04a29106efd13056e46b2dc0&skey=@crypt_9fe8734c_86fe8e39d9196b957da5836cfda1b519
p4610
sVKeyWord
p4611
Vgh_
p4612
sVProvince
p4613
V\u5317\u4eac
p4614
sVPYInitial
p4615
VTXNBA
p4616
sVRemarkName
p4617
g43
sVIsOwner
p4618
I0
sVSex
p4619
I0
sVStarFriend
p4620
I0
sVHideInputBarFlag
p4621
I0
sVChatRoomId
p4622
I0
sVEncryChatRoomId
p4623
g43
sVAttrStatus
p4624
I0
sVStatues
p4625
I0
stp4626
Rp4627
I1
bag25
(g3559
g30
(dp4628
VUserName
p4629
V@e911fe61ef48e6b972a5dbcfc9020e73
p4630
sVCity
p4631
V\u6df1\u5733
p4632
sVSnsFlag
p4633
I0
sVDisplayName
p4634
g43
sVUniFriend
p4635
I0
sVMemberCount
p4636
I0
sVOwnerUin
p4637
I0
sVMemberList
p4638
g41
sVAlias
p4639
g43
sVPYQuanPin
p4640
VPoweron
p4641
sVSignature
p4642
V\u6bcf\u5929\u90fd\u6709\u6599\u7684AI\u667a\u80fd\u52a9\u624b
p4643
sVRemarkPYInitial
p4644
g43
sVContactFlag
p4645
I1
sVUin
p4646
I0
sVNickName
p4647
VPoweron
p4648
sVAppAccountFlag
p4649
I0
sVVerifyFlag
p4650
I24
sVRemarkPYQuanPin
p4651
g43
sVHeadImgUrl
p4652
V/cgi-bin/mmwebwx-bin/webwxgeticon?seq=644011133&username=@e911fe61ef48e6b972a5dbcfc9020e73&skey=@crypt_9fe8734c_86fe8e39d9196b957da5836cfda1b519
p4653
sVKeyWord
p4654
Vgh_
p4655
sVProvince
p4656
V\u5e7f\u4e1c
p4657
sVPYInitial
p4658
VPOWERON
p4659
sVRemarkName
p4660
g43
sVIsOwner
p4661
I0
sVSex
p4662
I0
sVStarFriend
p4663
I0
sVHideInputBarFlag
p4664
I0
sVChatRoomId
p4665
I0
sVEncryChatRoomId
p4666
g43
sVAttrStatus
p4667
I0
sVStatues
p4668
I0
stp4669
Rp4670
I1
bag25
(g3559
g30
(dp4671
VUserName
p4672
V@67e4039da7a5be6e1b57cd1a02766ab5
p4673
sVCity
p4674
V\u6cc9\u5dde
p4675
sVSnsFlag
p4676
I0
sVDisplayName
p4677
g43
sVUniFriend
p4678
I0
sVMemberCount
p4679
I0
sVOwnerUin
p4680
I0
sVMemberList
p4681
g41
sVAlias
p4682
g43
sVPYQuanPin
p4683
g43
sVSignature
p4684
V\u6821\u56ed\u767e\u4e8b\u52a9\u7406\uff0c\u63d0\u4f9b\u5916\u5356\uff0c\u8d2d\u7269\uff0c\u8d44\u8baf\u7b49\u591a\u65b9\u4f4d\u4fe1\u606f\uff0c\u4e00\u53f7\u5728\u624b\uff0c\u4e07\u4e8b\u65e0\u5fe7\u3002
p4685
sVRemarkPYInitial
p4686
g43
sVContactFlag
p4687
I1
sVUin
p4688
I0
sVNickName
p4689
g43
sVAppAccountFlag
p4690
I0
sVVerifyFlag
p4691
I8
sVRemarkPYQuanPin
p4692
g43
sVHeadImgUrl
p4693
V/cgi-bin/mmwebwx-bin/webwxgeticon?seq=641695800&username=@67e4039da7a5be6e1b57cd1a02766ab5&skey=@crypt_9fe8734c_86fe8e39d9196b957da5836cfda1b519
p4694
sVKeyWord
p4695
Vgh_
p4696
sVProvince
p4697
V\u798f\u5efa
p4698
sVPYInitial
p4699
g43
sVRemarkName
p4700
g43
sVIsOwner
p4701
I0
sVSex
p4702
I0
sVStarFriend
p4703
I0
sVHideInputBarFlag
p4704
I0
sVChatRoomId
p4705
I0
sVEncryChatRoomId
p4706
g43
sVAttrStatus
p4707
I0
sVStatues
p4708
I0
stp4709
Rp4710
I1
bag25
(g3559
g30
(dp4711
VUserName
p4712
V@3d46b48c798a08188701eacc1582db09
p4713
sVCity
p4714
g43
sVSnsFlag
p4715
I0
sVDisplayName
p4716
g43
sVUniFriend
p4717
I0
sVMemberCount
p4718
I0
sVOwnerUin
p4719
I0
sVMemberList
p4720
g41
sVAlias
p4721
g43
sVPYQuanPin
p4722
Vzhongkeyuanzhisheng
p4723
sVSignature
p4724
V\u4f20\u64ad\u79d1\u5b66\uff0c\u670d\u52a1\u516c\u4f17\u3002
p4725
sVRemarkPYInitial
p4726
g43
sVContactFlag
p4727
I1
sVUin
p4728
I0
sVNickName
p4729
V\u4e2d\u79d1\u9662\u4e4b\u58f0
p4730
sVAppAccountFlag
p4731
I0
sVVerifyFlag
p4732
I24
sVRemarkPYQuanPin
p4733
g43
sVHeadImgUrl
p4734
V/cgi-bin/mmwebwx-bin/webwxgeticon?seq=641696489&username=@3d46b48c798a08188701eacc1582db09&skey=@crypt_9fe8734c_86fe8e39d9196b957da5836cfda1b519
p4735
sVKeyWord
p4736
Vgh_
p4737
sVProvince
p4738
V\u5317\u4eac
p4739
sVPYInitial
p4740
VZKYZS
p4741
sVRemarkName
p4742
g43
sVIsOwner
p4743
I0
sVSex
p4744
I0
sVStarFriend
p4745
I0
sVHideInputBarFlag
p4746
I0
sVChatRoomId
p4747
I0
sVEncryChatRoomId
p4748
g43
sVAttrStatus
p4749
I0
sVStatues
p4750
I0
stp4751
Rp4752
I1
bag25
(g3559
g30
(dp4753
VUserName
p4754
V@922601a7ead68d884dff3077489d5dde
p4755
sVCity
p4756
V\u82cf\u5dde
p4757
sVSnsFlag
p4758
I0
sVDisplayName
p4759
g43
sVUniFriend
p4760
I0
sVMemberCount
p4761
I0
sVOwnerUin
p4762
I0
sVMemberList
p4763
g41
sVAlias
p4764
g43
sVPYQuanPin
p4765
V2ULP
p4766
sVSignature
p4767
V2U\u826f\u54c1\u6dd8\u5b9d\u5e97\uff0c\u4e13\u6ce8\u5916\u8d38\u7537\u88c5\uff01\u5173\u6ce8\u8001\u9ec4\uff0c\u4f1a\u7b2c\u4e00\u65f6\u95f4\u83b7\u5f97\u65b0\u54c1\u901a\u77e5\u4ee5\u53ca\u5e97\u94fa\u52a8\u6001\uff0c\u4ee5\u53ca\u4f18\u60e0\u4fe1\u606f\u54e6\uff01~\u4e0d\u4f1a\u968f\u4fbf\u53d1\u5e7f\u544a\uff0c\u5982\u6709\u95ee\u9898\u53ef\u4ee5\u7ed9\u6211\u7559\u8a00\uff0c\u6bcf\u5929\u665a\u4e0a\u6211\u90fd\u4f1a\u7b2c\u4e00\u65f6\u95f4\u7ed9\u4f60\u5904\u7406\uff01~\u6dd8\u5b9d\u641c\u7d22\u5e97\u94fa\u30102U\u826f\u54c1\u3011\uff0c\u5373\u53ef\u5230\u8fbe\u6211\u4eec\u5e97\u94fa\uff01
p4768
sVRemarkPYInitial
p4769
g43
sVContactFlag
p4770
I1
sVUin
p4771
I0
sVNickName
p4772
V2ULP
p4773
sVAppAccountFlag
p4774
I0
sVVerifyFlag
p4775
I8
sVRemarkPYQuanPin
p4776
g43
sVHeadImgUrl
p4777
V/cgi-bin/mmwebwx-bin/webwxgeticon?seq=632408170&username=@922601a7ead68d884dff3077489d5dde&skey=@crypt_9fe8734c_86fe8e39d9196b957da5836cfda1b519
p4778
sVKeyWord
p4779
Vgh_
p4780
sVProvince
p4781
V\u6c5f\u82cf
p4782
sVPYInitial
p4783
V2ULP
p4784
sVRemarkName
p4785
g43
sVIsOwner
p4786
I0
sVSex
p4787
I0
sVStarFriend
p4788
I0
sVHideInputBarFlag
p4789
I0
sVChatRoomId
p4790
I0
sVEncryChatRoomId
p4791
g43
sVAttrStatus
p4792
I0
sVStatues
p4793
I0
stp4794
Rp4795
I1
bag25
(g3559
g30
(dp4796
VUserName
p4797
V@a60b9e9b5f3f3854508c652288aefe69
p4798
sVCity
p4799
V\u5e7f\u5dde
p4800
sVSnsFlag
p4801
I0
sVDisplayName
p4802
g43
sVUniFriend
p4803
I0
sVMemberCount
p4804
I0
sVOwnerUin
p4805
I0
sVMemberList
p4806
g41
sVAlias
p4807
g43
sVPYQuanPin
p4808
Vlianshuchengjindingyuehao
p4809
sVSignature
p4810
V\u5173\u6ce8\u70bc\u6570\u6210\u91d1\uff0c\u5b66\u4e60\u6570\u636e\u6316\u6398\u4e0e\u5206\u6790\u6280\u5de7\uff0c\u4e86\u89e3\u6700\u65b0\u5feb\u7684\u6570\u636e\u5206\u6790\u8bfe\u7a0b\u4fe1\u606f\u3002\u66f4\u591a\u77e5\u8bc6\u66f4\u591a\u4f18\u60e0\uff0c\u5c3d\u5728\u70bc\u6570\u6210\u91d1\uff01\u62db\u52df\u5929\u4e0b\u597d\u6c49\uff0c\u4e00\u8d77\u70bc\u6570\u6210\u91d1\uff01
p4811
sVRemarkPYInitial
p4812
g43
sVContactFlag
p4813
I1
sVUin
p4814
I0
sVNickName
p4815
V\u70bc\u6570\u6210\u91d1\u8ba2\u9605\u53f7
p4816
sVAppAccountFlag
p4817
I0
sVVerifyFlag
p4818
I24
sVRemarkPYQuanPin
p4819
g43
sVHeadImgUrl
p4820
V/cgi-bin/mmwebwx-bin/webwxgeticon?seq=648482987&username=@a60b9e9b5f3f3854508c652288aefe69&skey=@crypt_9fe8734c_86fe8e39d9196b957da5836cfda1b519
p4821
sVKeyWord
p4822
Vgh_
p4823
sVProvince
p4824
V\u5e7f\u4e1c
p4825
sVPYInitial
p4826
VLSCJDYH
p4827
sVRemarkName
p4828
g43
sVIsOwner
p4829
I0
sVSex
p4830
I0
sVStarFriend
p4831
I0
sVHideInputBarFlag
p4832
I0
sVChatRoomId
p4833
I0
sVEncryChatRoomId
p4834
g43
sVAttrStatus
p4835
I0
sVStatues
p4836
I0
stp4837
Rp4838
I1
bag25
(g3559
g30
(dp4839
VUserName
p4840
V@263927b49329b539db5808e7239fff04
p4841
sVCity
p4842
V\u897f\u57ce
p4843
sVSnsFlag
p4844
I0
sVDisplayName
p4845
g43
sVUniFriend
p4846
I0
sVMemberCount
p4847
I0
sVOwnerUin
p4848
I0
sVMemberList
p4849
g41
sVAlias
p4850
g43
sVPYQuanPin
p4851
Vhuazhangjisuanji
p4852
sVSignature
p4853
V\u4f20\u64ad\u8ba1\u7b97\u673a\u77e5\u8bc6\u3001\u4e92\u52a8\u5206\u4eab\uff0c\u534e\u7ae0\u4e0e\u60a8\u5171\u540c\u8fdb\u6b65\uff01
p4854
sVRemarkPYInitial
p4855
g43
sVContactFlag
p4856
I1
sVUin
p4857
I0
sVNickName
p4858
V\u534e\u7ae0\u8ba1\u7b97\u673a
p4859
sVAppAccountFlag
p4860
I0
sVVerifyFlag
p4861
I8
sVRemarkPYQuanPin
p4862
g43
sVHeadImgUrl
p4863
V/cgi-bin/mmwebwx-bin/webwxgeticon?seq=641697044&username=@263927b49329b539db5808e7239fff04&skey=@crypt_9fe8734c_86fe8e39d9196b957da5836cfda1b519
p4864
sVKeyWord
p4865
Vgh_
p4866
sVProvince
p4867
V\u5317\u4eac
p4868
sVPYInitial
p4869
VHZJSJ
p4870
sVRemarkName
p4871
g43
sVIsOwner
p4872
I0
sVSex
p4873
I0
sVStarFriend
p4874
I0
sVHideInputBarFlag
p4875
I0
sVChatRoomId
p4876
I0
sVEncryChatRoomId
p4877
g43
sVAttrStatus
p4878
I0
sVStatues
p4879
I0
stp4880
Rp4881
I1
bag25
(g3559
g30
(dp4882
VUserName
p4883
V@1f7af7bd1d67bca699fc961921ecda69
p4884
sVCity
p4885
V\u6d77\u6dc0
p4886
sVSnsFlag
p4887
I0
sVDisplayName
p4888
g43
sVUniFriend
p4889
I0
sVMemberCount
p4890
I0
sVOwnerUin
p4891
I0
sVMemberList
p4892
g41
sVAlias
p4893
g43
sVPYQuanPin
p4894
Vzhongguorengongzhinengxuehui
p4895
sVSignature
p4896
V\u5173\u6ce8\u4e2d\u56fd\u4eba\u5de5\u667a\u80fd\u5b66\u4f1a\u5b98\u65b9\u516c\u5171\u8d26\u53f7\uff0c\u6536\u53d6\u5b66\u4f1a\u7684\u79d1\u666e\u4fe1\u606f\u3001\u65b0\u95fb\u52a8\u6001\u3001\u6d3b\u52a8\u9884\u544a\u53ca\u4eba\u5de5\u667a\u80fd\u9886\u57df\u79d1\u6280\u524d\u6cbf\u4fe1\u606f\u3002
p4897
sVRemarkPYInitial
p4898
g43
sVContactFlag
p4899
I1
sVUin
p4900
I0
sVNickName
p4901
V\u4e2d\u56fd\u4eba\u5de5\u667a\u80fd\u5b66\u4f1a
p4902
sVAppAccountFlag
p4903
I0
sVVerifyFlag
p4904
I24
sVRemarkPYQuanPin
p4905
g43
sVHeadImgUrl
p4906
V/cgi-bin/mmwebwx-bin/webwxgeticon?seq=641696601&username=@1f7af7bd1d67bca699fc961921ecda69&skey=@crypt_9fe8734c_86fe8e39d9196b957da5836cfda1b519
p4907
sVKeyWord
p4908
Vgh_
p4909
sVProvince
p4910
V\u5317\u4eac
p4911
sVPYInitial
p4912
VZGRGZNXH
p4913
sVRemarkName
p4914
g43
sVIsOwner
p4915
I0
sVSex
p4916
I0
sVStarFriend
p4917
I0
sVHideInputBarFlag
p4918
I0
sVChatRoomId
p4919
I0
sVEncryChatRoomId
p4920
g43
sVAttrStatus
p4921
I0
sVStatues
p4922
I0
stp4923
Rp4924
I1
bag25
(g3559
g30
(dp4925
VUserName
p4926
V@644819a68ea356a665dac5391127eabb
p4927
sVCity
p4928
V\u6d77\u6dc0
p4929
sVSnsFlag
p4930
I0
sVDisplayName
p4931
g43
sVUniFriend
p4932
I0
sVMemberCount
p4933
I0
sVOwnerUin
p4934
I0
sVMemberList
p4935
g41
sVAlias
p4936
g43
sVPYQuanPin
p4937
VNLPJob
p4938
sVSignature
p4939
VNLPJob &amp; 52NLP &amp; \u8bfe\u7a0b\u56fe\u8c31\u4e09\u5408\u4e00; NLPJob\u4e2d\u82f1\u53cc\u8bed\u804a\u5929\u673a\u5668\u4eba"\u65e0\u540d(Nameless)"
p4940
sVRemarkPYInitial
p4941
g43
sVContactFlag
p4942
I1
sVUin
p4943
I0
sVNickName
p4944
VNLPJob
p4945
sVAppAccountFlag
p4946
I0
sVVerifyFlag
p4947
I8
sVRemarkPYQuanPin
p4948
g43
sVHeadImgUrl
p4949
V/cgi-bin/mmwebwx-bin/webwxgeticon?seq=644011157&username=@644819a68ea356a665dac5391127eabb&skey=@crypt_9fe8734c_86fe8e39d9196b957da5836cfda1b519
p4950
sVKeyWord
p4951
Vgh_
p4952
sVProvince
p4953
V\u5317\u4eac
p4954
sVPYInitial
p4955
VNLPJOB
p4956
sVRemarkName
p4957
g43
sVIsOwner
p4958
I0
sVSex
p4959
I0
sVStarFriend
p4960
I0
sVHideInputBarFlag
p4961
I0
sVChatRoomId
p4962
I0
sVEncryChatRoomId
p4963
g43
sVAttrStatus
p4964
I0
sVStatues
p4965
I0
stp4966
Rp4967
I1
bag25
(g3559
g30
(dp4968
VUserName
p4969
V@dba162a98d3517a16c33d7e3db32e32b
p4970
sVCity
p4971
V\u4e1c\u57ce
p4972
sVSnsFlag
p4973
I0
sVDisplayName
p4974
g43
sVUniFriend
p4975
I0
sVMemberCount
p4976
I0
sVOwnerUin
p4977
I0
sVMemberList
p4978
g41
sVAlias
p4979
g43
sVPYQuanPin
p4980
Vchengxuyuandenaxieshi
p4981
sVSignature
p4982
V\u6700\u6709\u5f71\u54cd\u529b\u7684\u7a0b\u5e8f\u5458\u81ea\u5a92\u4f53\uff0c\u5173\u6ce8\u7a0b\u5e8f\u5458\u76f8\u5173\u8bdd\u9898\uff1aIT\u6280\u672f\u3001IT\u804c\u573a\u3001\u5728\u7ebf\u8bfe\u7a0b\u3001\u5b66\u4e60\u8d44\u6e90\u7b49\u3002
p4983
sVRemarkPYInitial
p4984
g43
sVContactFlag
p4985
I1
sVUin
p4986
I0
sVNickName
p4987
V\u7a0b\u5e8f\u5458\u7684\u90a3\u4e9b\u4e8b
p4988
sVAppAccountFlag
p4989
I0
sVVerifyFlag
p4990
I24
sVRemarkPYQuanPin
p4991
g43
sVHeadImgUrl
p4992
V/cgi-bin/mmwebwx-bin/webwxgeticon?seq=648510788&username=@dba162a98d3517a16c33d7e3db32e32b&skey=@crypt_9fe8734c_86fe8e39d9196b957da5836cfda1b519
p4993
sVKeyWord
p4994
Vgh_
p4995
sVProvince
p4996
V\u5317\u4eac
p4997
sVPYInitial
p4998
VCXYDNXS
p4999
sVRemarkName
p5000
g43
sVIsOwner
p5001
I0
sVSex
p5002
I0
sVStarFriend
p5003
I0
sVHideInputBarFlag
p5004
I0
sVChatRoomId
p5005
I0
sVEncryChatRoomId
p5006
g43
sVAttrStatus
p5007
I0
sVStatues
p5008
I0
stp5009
Rp5010
I1
bag25
(g3559
g30
(dp5011
VUserName
p5012
V@85310abd5c9a4df0f92eba14a64cd5ce
p5013
sVCity
p5014
V\u6d77\u6dc0
p5015
sVSnsFlag
p5016
I0
sVDisplayName
p5017
g43
sVUniFriend
p5018
I0
sVMemberCount
p5019
I0
sVOwnerUin
p5020
I0
sVMemberList
p5021
g41
sVAlias
p5022
g43
sVPYQuanPin
p5023
Vchengxuyuanderichang
p5024
sVSignature
p5025
VHello world! \u505a\u7b2c\u4e00\u4e2a\u4e13\u6ce8\u4e8e\u7a0b\u5e8f\u5a9b\u7684\u516c\u4f17\u53f7\uff01\u4e24\u4f4d\u5c0f\u5c0f\u7a0b\u5e8f\u5a9b\u5e26\u4f60\u9886\u7565\u7a0b\u5e8f\u5a9b\u7684\u65e5\u5e38\uff0c\u6709\u4e13\u4e1a\u77e5\u8bc6\u4e5f\u6709\u751f\u5b58\u6280\u80fd\u3002//\u5176\u5b9e\u6211\u4eec\u7684\u751f\u6d3b\u4e5f\u53ef\u4ee5\u8fc7\u5f97\u5f88\u7cbe\u5f69\uff01
p5026
sVRemarkPYInitial
p5027
g43
sVContactFlag
p5028
I1
sVUin
p5029
I0
sVNickName
p5030
V\u7a0b\u5e8f\u5a9b\u7684\u65e5\u5e38
p5031
sVAppAccountFlag
p5032
I0
sVVerifyFlag
p5033
I8
sVRemarkPYQuanPin
p5034
g43
sVHeadImgUrl
p5035
V/cgi-bin/mmwebwx-bin/webwxgeticon?seq=644011726&username=@85310abd5c9a4df0f92eba14a64cd5ce&skey=@crypt_9fe8734c_86fe8e39d9196b957da5836cfda1b519
p5036
sVKeyWord
p5037
Vgh_
p5038
sVProvince
p5039
V\u5317\u4eac
p5040
sVPYInitial
p5041
VCXYDRC
p5042
sVRemarkName
p5043
g43
sVIsOwner
p5044
I0
sVSex
p5045
I0
sVStarFriend
p5046
I0
sVHideInputBarFlag
p5047
I0
sVChatRoomId
p5048
I0
sVEncryChatRoomId
p5049
g43
sVAttrStatus
p5050
I0
sVStatues
p5051
I0
stp5052
Rp5053
I1
bag25
(g3559
g30
(dp5054
VUserName
p5055
V@bf30f482e65f474b0f69d6c5e7a08a0b
p5056
sVCity
p5057
V\u666e\u9640
p5058
sVSnsFlag
p5059
I0
sVDisplayName
p5060
g43
sVUniFriend
p5061
I0
sVMemberCount
p5062
I0
sVOwnerUin
p5063
I0
sVMemberList
p5064
g41
sVAlias
p5065
g43
sVPYQuanPin
p5066
Vshushanlaile
p5067
sVSignature
p5068
V\u5982\u679c\u4f60\u4e0d\u77e5\u9053\u8bfb\u4ec0\u4e48\u4e66\uff0c\u5173\u6ce8\u4e66\u5355\u72d7\u5c31\u5bf9\u4e86\u3002\u4e66\u5355\u72d7\u5c06\u63a5\u7ba1\u4f60\u4e0b\u534a\u751f\u7684\u5168\u90e8\u9605\u8bfb\u8ba1\u5212\u3002\u4e66\u5355\u72d7\u6bcf\u5929\u4e3a500\u4e07\u7c89\u4e1d\u63a8\u8350\u4e66\u5355\u72d7\u724c\u4e66\u5355\uff0c\u770b\u8fc7\u4f60\u5c31\u4f1a\u7231\u4e0a\u6211\u3002
p5069
sVRemarkPYInitial
p5070
g43
sVContactFlag
p5071
I1
sVUin
p5072
I0
sVNickName
p5073
V\u4e66\u5355\u6765\u4e86
p5074
sVAppAccountFlag
p5075
I0
sVVerifyFlag
p5076
I24
sVRemarkPYQuanPin
p5077
g43
sVHeadImgUrl
p5078
V/cgi-bin/mmwebwx-bin/webwxgeticon?seq=648485453&username=@bf30f482e65f474b0f69d6c5e7a08a0b&skey=@crypt_9fe8734c_86fe8e39d9196b957da5836cfda1b519
p5079
sVKeyWord
p5080
Vgh_
p5081
sVProvince
p5082
V\u4e0a\u6d77
p5083
sVPYInitial
p5084
VSSLL
p5085
sVRemarkName
p5086
g43
sVIsOwner
p5087
I0
sVSex
p5088
I0
sVStarFriend
p5089
I0
sVHideInputBarFlag
p5090
I0
sVChatRoomId
p5091
I0
sVEncryChatRoomId
p5092
g43
sVAttrStatus
p5093
I0
sVStatues
p5094
I0
stp5095
Rp5096
I1
bag25
(g3559
g30
(dp5097
VUserName
p5098
V@8621a338aa8c9e2d4762e1c630ecc4bf
p5099
sVCity
p5100
V\u5609\u5b9a
p5101
sVSnsFlag
p5102
I0
sVDisplayName
p5103
g43
sVUniFriend
p5104
I0
sVMemberCount
p5105
I0
sVOwnerUin
p5106
I0
sVMemberList
p5107
g41
sVAlias
p5108
g43
sVPYQuanPin
p5109
Vzhongguoshehuixue
p5110
sVSignature
p5111
V\u793e\u4f1a\u79d1\u5b66\u9886\u57df\u6700\u5177\u5f71\u54cd\u529b\u7684\u975e\u5b98\u65b9\u5782\u76f4\u5a92\u4f53\u5e73\u53f0\uff0c50\u4e07+\u793e\u79d1\u8bfb\u8005\u805a\u96c6\u5730\uff0c\u6bcf\u5929\u4e3a\u60a8\u63a8\u9001\u793e\u4f1a\u79d1\u5b66\u6210\u679c\u53ca\u793e\u4f1a\u65f6\u4e8b\u8bc4\u8bba\u7b49\u7cbe\u9009\u6587\u7ae0\uff0c\u611f\u8c22\u60a8\u7684\u5173\u6ce8\uff01\u4e5f\u6b22\u8fce\u5173\u6ce8\u65d7\u4e0b\u535a\u62a5\u53f7"\u793e\u4f1a\u5b66\u535a\u89c8"\u4e0e\u8d44\u8baf\u53f7"\u4eba\u6587\u793e\u79d1\u8bb2\u5ea7"\u3002\u65b0\u6d6a\u5fae\u535a@\u793e\u4f1a\u5b66\u535a\u89c8\u3002\u3010\u58f9\u5c71\u6587\u5316\u4f20\u5a92\u65d7\u4e0b\u5e73\u53f0\u3011
p5112
sVRemarkPYInitial
p5113
g43
sVContactFlag
p5114
I1
sVUin
p5115
I0
sVNickName
p5116
V\u4e2d\u56fd\u793e\u4f1a\u5b66
p5117
sVAppAccountFlag
p5118
I0
sVVerifyFlag
p5119
I8
sVRemarkPYQuanPin
p5120
g43
sVHeadImgUrl
p5121
V/cgi-bin/mmwebwx-bin/webwxgeticon?seq=647650292&username=@8621a338aa8c9e2d4762e1c630ecc4bf&skey=@crypt_9fe8734c_86fe8e39d9196b957da5836cfda1b519
p5122
sVKeyWord
p5123
Vgh_
p5124
sVProvince
p5125
V\u4e0a\u6d77
p5126
sVPYInitial
p5127
VZGSHX
p5128
sVRemarkName
p5129
g43
sVIsOwner
p5130
I0
sVSex
p5131
I0
sVStarFriend
p5132
I0
sVHideInputBarFlag
p5133
I0
sVChatRoomId
p5134
I0
sVEncryChatRoomId
p5135
g43
sVAttrStatus
p5136
I0
sVStatues
p5137
I0
stp5138
Rp5139
I1
bag25
(g3559
g30
(dp5140
VUserName
p5141
V@ed5ce4a1dc6b1ad639b3ea106e341aa4
p5142
sVCity
p5143
V\u671d\u9633
p5144
sVSnsFlag
p5145
I0
sVDisplayName
p5146
g43
sVUniFriend
p5147
I0
sVMemberCount
p5148
I0
sVOwnerUin
p5149
I0
sVMemberList
p5150
g41
sVAlias
p5151
g43
sVPYQuanPin
p5152
VSparkjishuribao
p5153
sVSignature
p5154
V\u6bcf\u65e5\u64ad\u62a5Spark\u76f8\u5173\u6280\u672f\u53ca\u8d44\u8baf\uff0c\u6211\u4eec\u575a\u4fe1Spark\u624d\u662f\u672a\u6765\u7684\u901a\u7528\u5927\u6570\u636e\u5904\u7406\u6846\u67b6\u3002
p5155
sVRemarkPYInitial
p5156
g43
sVContactFlag
p5157
I1
sVUin
p5158
I0
sVNickName
p5159
VSpark\u6280\u672f\u65e5\u62a5
p5160
sVAppAccountFlag
p5161
I0
sVVerifyFlag
p5162
I8
sVRemarkPYQuanPin
p5163
g43
sVHeadImgUrl
p5164
V/cgi-bin/mmwebwx-bin/webwxgeticon?seq=661561495&username=@ed5ce4a1dc6b1ad639b3ea106e341aa4&skey=@crypt_9fe8734c_86fe8e39d9196b957da5836cfda1b519
p5165
sVKeyWord
p5166
Vgh_
p5167
sVProvince
p5168
V\u5317\u4eac
p5169
sVPYInitial
p5170
VSPARKJSRB
p5171
sVRemarkName
p5172
g43
sVIsOwner
p5173
I0
sVSex
p5174
I0
sVStarFriend
p5175
I0
sVHideInputBarFlag
p5176
I0
sVChatRoomId
p5177
I0
sVEncryChatRoomId
p5178
g43
sVAttrStatus
p5179
I0
sVStatues
p5180
I0
stp5181
Rp5182
I1
bag25
(g3559
g30
(dp5183
VUserName
p5184
V@42daf5843febec52034864e71dd58cab
p5185
sVCity
p5186
V\u5357\u4eac
p5187
sVSnsFlag
p5188
I0
sVDisplayName
p5189
g43
sVUniFriend
p5190
I0
sVMemberCount
p5191
I0
sVOwnerUin
p5192
I0
sVMemberList
p5193
g41
sVAlias
p5194
g43
sVPYQuanPin
p5195
Vjingdianremendianying
p5196
sVSignature
p5197
V\u7535\u5f71\u7231\u597d\u8005!\u4e0d\u5b9a\u671f\u63a8\u8350\u4f18\u79c0\u7684\u6700\u65b0\u3001\u7ecf\u5178\u3001\u70ed\u95e8\u548c\u6709\u8da3\u7684\u7535\u5f71\u8d44\u8baf\uff0c\u4e0e\u7f51\u53cb\u4e00\u8d77\u5206\u4eab\u503c\u5f97\u6211\u4eec\u6000\u5ff5\u7fa1\u6155\u7684\u90a3\u4e9b\u4eba\u90a3\u4e9b\u4e8b,\u7ed9\u4f60\u4e00\u4e2a\u5feb\u4e50\u7684\u5e73\u53f0!\u656c\u8bf7\u6301\u7eed\u5173\u6ce8\u3002
p5198
sVRemarkPYInitial
p5199
g43
sVContactFlag
p5200
I1
sVUin
p5201
I0
sVNickName
p5202
V\u7ecf\u5178\u70ed\u95e8\u7535\u5f71
p5203
sVAppAccountFlag
p5204
I0
sVVerifyFlag
p5205
I8
sVRemarkPYQuanPin
p5206
g43
sVHeadImgUrl
p5207
V/cgi-bin/mmwebwx-bin/webwxgeticon?seq=648495480&username=@42daf5843febec52034864e71dd58cab&skey=@crypt_9fe8734c_86fe8e39d9196b957da5836cfda1b519
p5208
sVKeyWord
p5209
Vgh_
p5210
sVProvince
p5211
V\u6c5f\u82cf
p5212
sVPYInitial
p5213
VJDRMDY
p5214
sVRemarkName
p5215
g43
sVIsOwner
p5216
I0
sVSex
p5217
I0
sVStarFriend
p5218
I0
sVHideInputBarFlag
p5219
I0
sVChatRoomId
p5220
I0
sVEncryChatRoomId
p5221
g43
sVAttrStatus
p5222
I0
sVStatues
p5223
I0
stp5224
Rp5225
I1
bag25
(g3559
g30
(dp5226
VUserName
p5227
V@dfdf70e3a6e886a285206e124b985606
p5228
sVCity
p5229
V\u6d66\u4e1c\u65b0\u533a
p5230
sVSnsFlag
p5231
I0
sVDisplayName
p5232
g43
sVUniFriend
p5233
I0
sVMemberCount
p5234
I0
sVOwnerUin
p5235
I0
sVMemberList
p5236
g41
sVAlias
p5237
g43
sVPYQuanPin
p5238
Vchengxuyuandaga
p5239
sVSignature
p5240
V\u4e3a\u7a0b\u5e8f\u5458\u63d0\u4f9b\u6700\u4f18\u8d28\u7684\u535a\u6587\u3001\u6700\u7cbe\u5f69\u7684\u8ba8\u8bba\u3001\u6700\u5b9e\u7528\u7684\u5f00\u53d1\u8d44\u6e90\uff1b\u63d0\u4f9b\u6700\u65b0\u6700\u5168\u7684\u7f16\u7a0b\u5b66\u4e60\u8d44\u6599\uff1aPHP\u3001Objective-C\u3001Java\u3001Swift\u3001C/C++\u51fd\u6570\u5e93\u3001.NET Framework\u7c7b\u5e93\u3001J2SE API\u7b49\u7b49\u3002\u5e76\u4e0d\u5b9a\u671f\u5949\u9001\u5404\u79cd\u798f\u5229\u3002
p5241
sVRemarkPYInitial
p5242
g43
sVContactFlag
p5243
I1
sVUin
p5244
I0
sVNickName
p5245
V\u7a0b\u5e8f\u5458\u5927\u5496
p5246
sVAppAccountFlag
p5247
I0
sVVerifyFlag
p5248
I8
sVRemarkPYQuanPin
p5249
g43
sVHeadImgUrl
p5250
V/cgi-bin/mmwebwx-bin/webwxgeticon?seq=648508749&username=@dfdf70e3a6e886a285206e124b985606&skey=@crypt_9fe8734c_86fe8e39d9196b957da5836cfda1b519
p5251
sVKeyWord
p5252
Vgh_
p5253
sVProvince
p5254
V\u4e0a\u6d77
p5255
sVPYInitial
p5256
VCXYDG
p5257
sVRemarkName
p5258
g43
sVIsOwner
p5259
I0
sVSex
p5260
I0
sVStarFriend
p5261
I0
sVHideInputBarFlag
p5262
I0
sVChatRoomId
p5263
I0
sVEncryChatRoomId
p5264
g43
sVAttrStatus
p5265
I0
sVStatues
p5266
I0
stp5267
Rp5268
I1
bag25
(g3559
g30
(dp5269
VUserName
p5270
V@de4e328aae668aeec640ac8eaa4b8885
p5271
sVCity
p5272
V\u5e7f\u5dde
p5273
sVSnsFlag
p5274
I0
sVDisplayName
p5275
g43
sVUniFriend
p5276
I0
sVMemberCount
p5277
I0
sVOwnerUin
p5278
I0
sVMemberList
p5279
g41
sVAlias
p5280
g43
sVPYQuanPin
p5281
Vkeke
p5282
sVSignature
p5283
V\u79d1\u6280\u7f51\u7ad9\u8fa3\u4e48\u591a\uff0c\u53ea\u6709\u79d1\u5ba2\u7f51\uff08www.keke289.com\uff09\u6700\u5bf9\u4f60\u80c3\u53e3\u3002\u6211\u4eec\u62d2\u7edd\u6210\u89c1\uff0c\u505a\u6709\u4e3b\u89c1\u7684\u79d1\u6280\u8303\uff0c\u6bcf\u65e5\u9001\u4e0a\u6700\u65b0\u6700\u5168\u7684IT\u6570\u7801\u79d1\u6280\u8d44\u8baf\uff0c\u5404\u79cd\u73a9\u673a\u4f53\u9a8c\uff0c\u4e30\u5bcc\u798f\u5229\u6d3b\u52a8\u5c3d\u5728\u79d1\u5ba2\u3002
p5284
sVRemarkPYInitial
p5285
g43
sVContactFlag
p5286
I1
sVUin
p5287
I0
sVNickName
p5288
V\u79d1\u5ba2
p5289
sVAppAccountFlag
p5290
I0
sVVerifyFlag
p5291
I24
sVRemarkPYQuanPin
p5292
g43
sVHeadImgUrl
p5293
V/cgi-bin/mmwebwx-bin/webwxgeticon?seq=641696946&username=@de4e328aae668aeec640ac8eaa4b8885&skey=@crypt_9fe8734c_86fe8e39d9196b957da5836cfda1b519
p5294
sVKeyWord
p5295
Vgh_
p5296
sVProvince
p5297
V\u5e7f\u4e1c
p5298
sVPYInitial
p5299
VKK
p5300
sVRemarkName
p5301
g43
sVIsOwner
p5302
I0
sVSex
p5303
I0
sVStarFriend
p5304
I0
sVHideInputBarFlag
p5305
I0
sVChatRoomId
p5306
I0
sVEncryChatRoomId
p5307
g43
sVAttrStatus
p5308
I0
sVStatues
p5309
I0
stp5310
Rp5311
I1
bag25
(g3559
g30
(dp5312
VUserName
p5313
V@4af8c944eb6f3e6333098bdf470829ca
p5314
sVCity
p5315
V\u671d\u9633
p5316
sVSnsFlag
p5317
I0
sVDisplayName
p5318
g43
sVUniFriend
p5319
I0
sVMemberCount
p5320
I0
sVOwnerUin
p5321
I0
sVMemberList
p5322
g41
sVAlias
p5323
g43
sVPYQuanPin
p5324
Vjiqizhixin
p5325
sVSignature
p5326
V\u4e13\u4e1a\u7684\u4eba\u5de5\u667a\u80fd\u5a92\u4f53\u548c\u4ea7\u4e1a\u670d\u52a1\u5e73\u53f0
p5327
sVRemarkPYInitial
p5328
g43
sVContactFlag
p5329
I1
sVUin
p5330
I0
sVNickName
p5331
V\u673a\u5668\u4e4b\u5fc3
p5332
sVAppAccountFlag
p5333
I0
sVVerifyFlag
p5334
I24
sVRemarkPYQuanPin
p5335
g43
sVHeadImgUrl
p5336
V/cgi-bin/mmwebwx-bin/webwxgeticon?seq=648510828&username=@4af8c944eb6f3e6333098bdf470829ca&skey=@crypt_9fe8734c_86fe8e39d9196b957da5836cfda1b519
p5337
sVKeyWord
p5338
Vgh_
p5339
sVProvince
p5340
V\u5317\u4eac
p5341
sVPYInitial
p5342
VJQZX
p5343
sVRemarkName
p5344
g43
sVIsOwner
p5345
I0
sVSex
p5346
I0
sVStarFriend
p5347
I0
sVHideInputBarFlag
p5348
I0
sVChatRoomId
p5349
I0
sVEncryChatRoomId
p5350
g43
sVAttrStatus
p5351
I0
sVStatues
p5352
I0
stp5353
Rp5354
I1
bag25
(g3559
g30
(dp5355
VUserName
p5356
V@5296b2b2b8d0fbeccd1e03eec33fa701
p5357
sVCity
p5358
V\u6d66\u4e1c\u65b0\u533a
p5359
sVSnsFlag
p5360
I0
sVDisplayName
p5361
g43
sVUniFriend
p5362
I0
sVMemberCount
p5363
I0
sVOwnerUin
p5364
I0
sVMemberList
p5365
g41
sVAlias
p5366
g43
sVPYQuanPin
p5367
VSOTONshujufenxi
p5368
sVSignature
p5369
VHi, \u6211\u4eec\u662fSOTON\u6570\u636e\u6316\u6398\u56e2\u961f\uff0c\u4e13\u6ce8\u4e8e\u5e26\u9886\u5927\u5bb6\u96f6\u57fa\u7840\u5b66\u4e60\u6570\u636e\u5206\u6790\u3002\u5728\u8fd9\u91cc\u4f60\u5c06\u5b9e\u73b0\u4ece\u83dc\u9e1f\u5230\u4e13\u5bb6\u7684\u903e\u8d8a\u3002\u6709\u68a6\u60f3\uff0c\u51fa\u5947\u8ff9\uff01
p5370
sVRemarkPYInitial
p5371
g43
sVContactFlag
p5372
I1
sVUin
p5373
I0
sVNickName
p5374
VSOTON\u6570\u636e\u5206\u6790
p5375
sVAppAccountFlag
p5376
I0
sVVerifyFlag
p5377
I8
sVRemarkPYQuanPin
p5378
g43
sVHeadImgUrl
p5379
V/cgi-bin/mmwebwx-bin/webwxgeticon?seq=647270387&username=@5296b2b2b8d0fbeccd1e03eec33fa701&skey=@crypt_9fe8734c_86fe8e39d9196b957da5836cfda1b519
p5380
sVKeyWord
p5381
Vgh_
p5382
sVProvince
p5383
V\u4e0a\u6d77
p5384
sVPYInitial
p5385
VSOTONSJFX
p5386
sVRemarkName
p5387
g43
sVIsOwner
p5388
I0
sVSex
p5389
I0
sVStarFriend
p5390
I0
sVHideInputBarFlag
p5391
I0
sVChatRoomId
p5392
I0
sVEncryChatRoomId
p5393
g43
sVAttrStatus
p5394
I0
sVStatues
p5395
I0
stp5396
Rp5397
I1
bag25
(g3559
g30
(dp5398
VUserName
p5399
V@635d9f39e91fb58fd2709992f0ccd1b6
p5400
sVCity
p5401
V\u666e\u9640
p5402
sVSnsFlag
p5403
I0
sVDisplayName
p5404
g43
sVUniFriend
p5405
I0
sVMemberCount
p5406
I0
sVOwnerUin
p5407
I0
sVMemberList
p5408
g41
sVAlias
p5409
g43
sVPYQuanPin
p5410
VPythonkaifazhe
p5411
sVSignature
p5412
V\u4eba\u751f\u82e6\u77ed\uff0c\u6211\u7528 Python\u3002\u4f2f\u4e50\u5728\u7ebf\u65d7\u4e0b\u8d26\u53f7\u300cPython\u5f00\u53d1\u8005\u300d\u5206\u4eab Python \u76f8\u5173\u7684\u6280\u672f\u6587\u7ae0\u3001\u5de5\u5177\u8d44\u6e90\u3001\u7cbe\u9009\u8bfe\u7a0b\u3001\u70ed\u70b9\u8d44\u8baf\u7b49\u3002
p5413
sVRemarkPYInitial
p5414
g43
sVContactFlag
p5415
I1
sVUin
p5416
I0
sVNickName
p5417
VPython\u5f00\u53d1\u8005
p5418
sVAppAccountFlag
p5419
I0
sVVerifyFlag
p5420
I8
sVRemarkPYQuanPin
p5421
g43
sVHeadImgUrl
p5422
V/cgi-bin/mmwebwx-bin/webwxgeticon?seq=648501971&username=@635d9f39e91fb58fd2709992f0ccd1b6&skey=@crypt_9fe8734c_86fe8e39d9196b957da5836cfda1b519
p5423
sVKeyWord
p5424
Vgh_
p5425
sVProvince
p5426
V\u4e0a\u6d77
p5427
sVPYInitial
p5428
VPYTHONKFZ
p5429
sVRemarkName
p5430
g43
sVIsOwner
p5431
I0
sVSex
p5432
I0
sVStarFriend
p5433
I0
sVHideInputBarFlag
p5434
I0
sVChatRoomId
p5435
I0
sVEncryChatRoomId
p5436
g43
sVAttrStatus
p5437
I0
sVStatues
p5438
I0
stp5439
Rp5440
I1
bag25
(g3559
g30
(dp5441
VUserName
p5442
V@9fbc7f07ab9eeff46a946f4c17c7fd97
p5443
sVCity
p5444
V\u5408\u80a5
p5445
sVSnsFlag
p5446
I0
sVDisplayName
p5447
g43
sVUniFriend
p5448
I0
sVMemberCount
p5449
I0
sVOwnerUin
p5450
I0
sVMemberList
p5451
g41
sVAlias
p5452
g43
sVPYQuanPin
p5453
Vtuijianjitongrumen
p5454
sVSignature
p5455
V\u5171\u540c\u5b66\u4e60\u63a8\u8350\u7cfb\u7edf\u77e5\u8bc6\uff0c\u53d1\u5e03\u6700\u65b0\u63a8\u8350\u7cfb\u7edf\u5b66\u672f\u7814\u7a76\u8fdb\u5c55\u53ca\u5e94\u7528\u3002\u4e3a\u60f3\u5728\u63a8\u8350\u7cfb\u7edf\u9886\u57df\u5b66\u4e60\u7684\u7ae5\u978b\u63d0\u4f9b\u826f\u597d\u7684\u8d44\u6e90\u5171\u4eab\u5e73\u53f0\u3002
p5456
sVRemarkPYInitial
p5457
g43
sVContactFlag
p5458
I1
sVUin
p5459
I0
sVNickName
p5460
V\u63a8\u8350\u7cfb\u7edf\u5165\u95e8
p5461
sVAppAccountFlag
p5462
I0
sVVerifyFlag
p5463
I8
sVRemarkPYQuanPin
p5464
g43
sVHeadImgUrl
p5465
V/cgi-bin/mmwebwx-bin/webwxgeticon?seq=648512441&username=@9fbc7f07ab9eeff46a946f4c17c7fd97&skey=@crypt_9fe8734c_86fe8e39d9196b957da5836cfda1b519
p5466
sVKeyWord
p5467
Vgh_
p5468
sVProvince
p5469
V\u5b89\u5fbd
p5470
sVPYInitial
p5471
VTJJTRM
p5472
sVRemarkName
p5473
g43
sVIsOwner
p5474
I0
sVSex
p5475
I0
sVStarFriend
p5476
I0
sVHideInputBarFlag
p5477
I0
sVChatRoomId
p5478
I0
sVEncryChatRoomId
p5479
g43
sVAttrStatus
p5480
I0
sVStatues
p5481
I0
stp5482
Rp5483
I1
bag25
(g3559
g30
(dp5484
VUserName
p5485
V@0f69a92992f8a0d0c7428fa7368b9cf5
p5486
sVCity
p5487
V\u5357\u4eac
p5488
sVSnsFlag
p5489
I0
sVDisplayName
p5490
g43
sVUniFriend
p5491
I0
sVMemberCount
p5492
I0
sVOwnerUin
p5493
I0
sVMemberList
p5494
g41
sVAlias
p5495
g43
sVPYQuanPin
p5496
Vzhongguodashuju
p5497
sVSignature
p5498
V\u4e2d\u56fd\u5927\u6570\u636e |  \u63d0\u4f9b\u5927\u6570\u636e\u6280\u672f\uff0c\u5927\u6570\u636e\u5e94\u7528\u6848\u4f8b\uff0c\u6c47\u805a\u5927\u6570\u636e\u8d44\u6599\uff0c\u8ba8\u8bba\u5927\u6570\u636e\u8bdd\u9898\u3002\u4e2d\u56fd\u5927\u6570\u636e\u662f\u56fd\u5185\u6700\u65e9\u7684\u516c\u76ca\u6027\u5927\u6570\u636e\u7f51\u7ad9\uff0c\u7531\u5218\u9e4f\u6559\u6388\u521b\u529e\u3002
p5499
sVRemarkPYInitial
p5500
g43
sVContactFlag
p5501
I1
sVUin
p5502
I0
sVNickName
p5503
V\u4e2d\u56fd\u5927\u6570\u636e
p5504
sVAppAccountFlag
p5505
I0
sVVerifyFlag
p5506
I8
sVRemarkPYQuanPin
p5507
g43
sVHeadImgUrl
p5508
V/cgi-bin/mmwebwx-bin/webwxgeticon?seq=648485618&username=@0f69a92992f8a0d0c7428fa7368b9cf5&skey=@crypt_9fe8734c_86fe8e39d9196b957da5836cfda1b519
p5509
sVKeyWord
p5510
Vgh_
p5511
sVProvince
p5512
V\u6c5f\u82cf
p5513
sVPYInitial
p5514
VZGDSJ
p5515
sVRemarkName
p5516
g43
sVIsOwner
p5517
I0
sVSex
p5518
I0
sVStarFriend
p5519
I0
sVHideInputBarFlag
p5520
I0
sVChatRoomId
p5521
I0
sVEncryChatRoomId
p5522
g43
sVAttrStatus
p5523
I0
sVStatues
p5524
I0
stp5525
Rp5526
I1
bag25
(g3559
g30
(dp5527
VUserName
p5528
V@5174f2c4db4e8f46c07a89bf5e60c3e7
p5529
sVCity
p5530
V\u671d\u9633
p5531
sVSnsFlag
p5532
I0
sVDisplayName
p5533
g43
sVUniFriend
p5534
I0
sVMemberCount
p5535
I0
sVOwnerUin
p5536
I0
sVMemberList
p5537
g41
sVAlias
p5538
g43
sVPYQuanPin
p5539
VResysChina
p5540
sVSignature
p5541
V\u4e2d\u56fd\u6700\u4e13\u4e1a\u7684\u4e2a\u6027\u5316\u63a8\u8350\u6280\u672f\u4e0e\u4ea7\u54c1\u793e\u533a\u3002
p5542
sVRemarkPYInitial
p5543
g43
sVContactFlag
p5544
I1
sVUin
p5545
I0
sVNickName
p5546
VResysChina
p5547
sVAppAccountFlag
p5548
I0
sVVerifyFlag
p5549
I8
sVRemarkPYQuanPin
p5550
g43
sVHeadImgUrl
p5551
V/cgi-bin/mmwebwx-bin/webwxgeticon?seq=648513012&username=@5174f2c4db4e8f46c07a89bf5e60c3e7&skey=@crypt_9fe8734c_86fe8e39d9196b957da5836cfda1b519
p5552
sVKeyWord
p5553
Vgh_
p5554
sVProvince
p5555
V\u5317\u4eac
p5556
sVPYInitial
p5557
VRESYSCHINA
p5558
sVRemarkName
p5559
g43
sVIsOwner
p5560
I0
sVSex
p5561
I0
sVStarFriend
p5562
I0
sVHideInputBarFlag
p5563
I0
sVChatRoomId
p5564
I0
sVEncryChatRoomId
p5565
g43
sVAttrStatus
p5566
I0
sVStatues
p5567
I0
stp5568
Rp5569
I1
bag25
(g3559
g30
(dp5570
VUserName
p5571
V@2cdf215f8f12c264a1052b336fcb62c6
p5572
sVCity
p5573
V\u53a6\u95e8
p5574
sVSnsFlag
p5575
I0
sVDisplayName
p5576
g43
sVUniFriend
p5577
I0
sVMemberCount
p5578
I0
sVOwnerUin
p5579
I0
sVMemberList
p5580
g41
sVAlias
p5581
g43
sVPYQuanPin
p5582
VDatartisanshujugongjiang
p5583
sVSignature
p5584
V\u6570\u636e\u65f6\u4ee3\uff0c\u5320\u5fc3\u72ec\u8fd0
p5585
sVRemarkPYInitial
p5586
g43
sVContactFlag
p5587
I1
sVUin
p5588
I0
sVNickName
p5589
VDatartisan\u6570\u636e\u5de5\u5320
p5590
sVAppAccountFlag
p5591
I0
sVVerifyFlag
p5592
I24
sVRemarkPYQuanPin
p5593
g43
sVHeadImgUrl
p5594
V/cgi-bin/mmwebwx-bin/webwxgeticon?seq=641697017&username=@2cdf215f8f12c264a1052b336fcb62c6&skey=@crypt_9fe8734c_86fe8e39d9196b957da5836cfda1b519
p5595
sVKeyWord
p5596
Vgh_
p5597
sVProvince
p5598
V\u798f\u5efa
p5599
sVPYInitial
p5600
VDATARTISANSJGJ
p5601
sVRemarkName
p5602
g43
sVIsOwner
p5603
I0
sVSex
p5604
I0
sVStarFriend
p5605
I0
sVHideInputBarFlag
p5606
I0
sVChatRoomId
p5607
I0
sVEncryChatRoomId
p5608
g43
sVAttrStatus
p5609
I0
sVStatues
p5610
I0
stp5611
Rp5612
I1
bag25
(g3559
g30
(dp5613
VUserName
p5614
V@09925f665ff67094143d1b78d88c9e19
p5615
sVCity
p5616
V\u95f5\u884c
p5617
sVSnsFlag
p5618
I0
sVDisplayName
p5619
g43
sVUniFriend
p5620
I0
sVMemberCount
p5621
I0
sVOwnerUin
p5622
I0
sVMemberList
p5623
g41
sVAlias
p5624
g43
sVPYQuanPin
p5625
Vweienguoji
p5626
sVSignature
p5627
V\u5173\u6ce8\u6211\u4eec\u6536\u53d6\u6bcf\u5929\u82f9\u679c\u4ea7\u54c1\u6700\u65b0\u62a5\u4ef7\uff0c\u8d44\u8baf\u3002
p5628
sVRemarkPYInitial
p5629
g43
sVContactFlag
p5630
I1
sVUin
p5631
I0
sVNickName
p5632
V\u97e6\u6069\u56fd\u9645
p5633
sVAppAccountFlag
p5634
I0
sVVerifyFlag
p5635
I24
sVRemarkPYQuanPin
p5636
g43
sVHeadImgUrl
p5637
V/cgi-bin/mmwebwx-bin/webwxgeticon?seq=635225238&username=@09925f665ff67094143d1b78d88c9e19&skey=@crypt_9fe8734c_86fe8e39d9196b957da5836cfda1b519
p5638
sVKeyWord
p5639
Vgh_
p5640
sVProvince
p5641
V\u4e0a\u6d77
p5642
sVPYInitial
p5643
VWEGJ
p5644
sVRemarkName
p5645
g43
sVIsOwner
p5646
I0
sVSex
p5647
I0
sVStarFriend
p5648
I0
sVHideInputBarFlag
p5649
I0
sVChatRoomId
p5650
I0
sVEncryChatRoomId
p5651
g43
sVAttrStatus
p5652
I0
sVStatues
p5653
I0
stp5654
Rp5655
I1
bag25
(g3559
g30
(dp5656
VUserName
p5657
V@f353c33da090dee428d59b35c8e37b04
p5658
sVCity
p5659
V\u53a6\u95e8
p5660
sVSnsFlag
p5661
I0
sVDisplayName
p5662
g43
sVUniFriend
p5663
I0
sVMemberCount
p5664
I0
sVOwnerUin
p5665
I0
sVMemberList
p5666
g41
sVAlias
p5667
g43
sVPYQuanPin
p5668
VquanzhouyouSHOWsheng
p5669
sVSignature
p5670
V\u5173\u6ce8\u4f18show\u751f\uff0c\u83b7\u53d6\u66f4\u591a\u8d44\u8baf
p5671
sVRemarkPYInitial
p5672
g43
sVContactFlag
p5673
I1
sVUin
p5674
I0
sVNickName
p5675
V\u6cc9\u5dde\u4f18SHOW\u751f
p5676
sVAppAccountFlag
p5677
I0
sVVerifyFlag
p5678
I8
sVRemarkPYQuanPin
p5679
g43
sVHeadImgUrl
p5680
V/cgi-bin/mmwebwx-bin/webwxgeticon?seq=648483061&username=@f353c33da090dee428d59b35c8e37b04&skey=@crypt_9fe8734c_86fe8e39d9196b957da5836cfda1b519
p5681
sVKeyWord
p5682
Vgh_
p5683
sVProvince
p5684
V\u798f\u5efa
p5685
sVPYInitial
p5686
VQZYSHOWS
p5687
sVRemarkName
p5688
g43
sVIsOwner
p5689
I0
sVSex
p5690
I0
sVStarFriend
p5691
I0
sVHideInputBarFlag
p5692
I0
sVChatRoomId
p5693
I0
sVEncryChatRoomId
p5694
g43
sVAttrStatus
p5695
I0
sVStatues
p5696
I0
stp5697
Rp5698
I1
bag25
(g3559
g30
(dp5699
VUserName
p5700
V@23e0c302e4fafa67d329d20cf5666766
p5701
sVCity
p5702
V\u6df1\u5733
p5703
sVSnsFlag
p5704
I0
sVDisplayName
p5705
g43
sVUniFriend
p5706
I0
sVMemberCount
p5707
I0
sVOwnerUin
p5708
I0
sVMemberList
p5709
g41
sVAlias
p5710
g43
sVPYQuanPin
p5711
Vsaileisanfenzhong
p5712
sVSignature
p5713
V\u8d5b\u96f7\u4e09\u5206\u949f\uff0c\u8ba9\u5929\u4e0b\u6ca1\u6709\u96be\u61c2\u7684\u4e8b\u60c5\uff08\u8d5b\u96f7\u65d7\u4e0b\uff09
p5714
sVRemarkPYInitial
p5715
g43
sVContactFlag
p5716
I1
sVUin
p5717
I0
sVNickName
p5718
V\u8d5b\u96f7\u4e09\u5206\u949f
p5719
sVAppAccountFlag
p5720
I0
sVVerifyFlag
p5721
I24
sVRemarkPYQuanPin
p5722
g43
sVHeadImgUrl
p5723
V/cgi-bin/mmwebwx-bin/webwxgeticon?seq=648518187&username=@23e0c302e4fafa67d329d20cf5666766&skey=@crypt_9fe8734c_86fe8e39d9196b957da5836cfda1b519
p5724
sVKeyWord
p5725
Vgh_
p5726
sVProvince
p5727
V\u5e7f\u4e1c
p5728
sVPYInitial
p5729
VSLSFZ
p5730
sVRemarkName
p5731
g43
sVIsOwner
p5732
I0
sVSex
p5733
I0
sVStarFriend
p5734
I0
sVHideInputBarFlag
p5735
I0
sVChatRoomId
p5736
I0
sVEncryChatRoomId
p5737
g43
sVAttrStatus
p5738
I0
sVStatues
p5739
I0
stp5740
Rp5741
I1
bag25
(g3559
g30
(dp5742
VUserName
p5743
V@9f3c1ba54867d485bd915b38332ca74d
p5744
sVCity
p5745
V\u671d\u9633
p5746
sVSnsFlag
p5747
I0
sVDisplayName
p5748
g43
sVUniFriend
p5749
I0
sVMemberCount
p5750
I0
sVOwnerUin
p5751
I0
sVMemberList
p5752
g41
sVAlias
p5753
g43
sVPYQuanPin
p5754
Vshenduxuexidajiangtang
p5755
sVSignature
p5756
V\u9ad8\u8d28\u91cf\u539f\u521b\u5185\u5bb9\u5e73\u53f0\uff0c\u9080\u8bf7\u5b66\u672f\u754c\u3001\u5de5\u4e1a\u754c\u4e00\u7ebf\u4e13\u5bb6\u64b0\u7a3f\uff0c\u81f4\u529b\u4e8e\u63a8\u9001\u4eba\u5de5\u667a\u80fd\u4e0e\u6df1\u5ea6\u5b66\u4e60\u6700\u65b0\u6280\u672f\u3001\u4ea7\u54c1\u548c\u6d3b\u52a8\u4fe1\u606f\u3002
p5757
sVRemarkPYInitial
p5758
g43
sVContactFlag
p5759
I1
sVUin
p5760
I0
sVNickName
p5761
V\u6df1\u5ea6\u5b66\u4e60\u5927\u8bb2\u5802
p5762
sVAppAccountFlag
p5763
I0
sVVerifyFlag
p5764
I8
sVRemarkPYQuanPin
p5765
g43
sVHeadImgUrl
p5766
V/cgi-bin/mmwebwx-bin/webwxgeticon?seq=648511055&username=@9f3c1ba54867d485bd915b38332ca74d&skey=@crypt_9fe8734c_86fe8e39d9196b957da5836cfda1b519
p5767
sVKeyWord
p5768
Vgh_
p5769
sVProvince
p5770
V\u5317\u4eac
p5771
sVPYInitial
p5772
VSDXXDJT
p5773
sVRemarkName
p5774
g43
sVIsOwner
p5775
I0
sVSex
p5776
I0
sVStarFriend
p5777
I0
sVHideInputBarFlag
p5778
I0
sVChatRoomId
p5779
I0
sVEncryChatRoomId
p5780
g43
sVAttrStatus
p5781
I0
sVStatues
p5782
I0
stp5783
Rp5784
I1
bag25
(g3559
g30
(dp5785
VUserName
p5786
V@c200fefeef4688077bed6d824d780d4f
p5787
sVCity
p5788
V\u53a6\u95e8
p5789
sVSnsFlag
p5790
I0
sVDisplayName
p5791
g43
sVUniFriend
p5792
I0
sVMemberCount
p5793
I0
sVOwnerUin
p5794
I0
sVMemberList
p5795
g41
sVAlias
p5796
g43
sVPYQuanPin
p5797
Vsuanfayushujujiegou
p5798
sVSignature
p5799
V\u7b97\u6cd5\u4e0e\u6570\u636e\u7ed3\u6784\u77e5\u8bc6\u3001\u8d44\u6e90\u5206\u4eab
p5800
sVRemarkPYInitial
p5801
g43
sVContactFlag
p5802
I1
sVUin
p5803
I0
sVNickName
p5804
V\u7b97\u6cd5\u4e0e\u6570\u636e\u7ed3\u6784
p5805
sVAppAccountFlag
p5806
I0
sVVerifyFlag
p5807
I8
sVRemarkPYQuanPin
p5808
g43
sVHeadImgUrl
p5809
V/cgi-bin/mmwebwx-bin/webwxgeticon?seq=648515026&username=@c200fefeef4688077bed6d824d780d4f&skey=@crypt_9fe8734c_86fe8e39d9196b957da5836cfda1b519
p5810
sVKeyWord
p5811
Vgh_
p5812
sVProvince
p5813
V\u798f\u5efa
p5814
sVPYInitial
p5815
VSFYSJJG
p5816
sVRemarkName
p5817
g43
sVIsOwner
p5818
I0
sVSex
p5819
I0
sVStarFriend
p5820
I0
sVHideInputBarFlag
p5821
I0
sVChatRoomId
p5822
I0
sVEncryChatRoomId
p5823
g43
sVAttrStatus
p5824
I0
sVStatues
p5825
I0
stp5826
Rp5827
I1
bag25
(g3559
g30
(dp5828
VUserName
p5829
V@9586d6c514719c4279b50470d7b4df46
p5830
sVCity
p5831
V\u671d\u9633
p5832
sVSnsFlag
p5833
I0
sVDisplayName
p5834
g43
sVUniFriend
p5835
I0
sVMemberCount
p5836
I0
sVOwnerUin
p5837
I0
sVMemberList
p5838
g41
sVAlias
p5839
g43
sVPYQuanPin
p5840
Vyuanzhengkejiweilaishiyanshi
p5841
sVSignature
p5842
V\u5173\u6ce8AI\u8d8b\u52bf \u63a2\u6c42\u667a\u80fd\u524d\u6cbf \u68a6\u60f3\u8000\u9886\u73b0\u5b9e \u7b03\u8015\u63a2\u7d22\u672a\u6765 LaunchX.AI.Labs
p5843
sVRemarkPYInitial
p5844
g43
sVContactFlag
p5845
I1
sVUin
p5846
I0
sVNickName
p5847
V\u5143\u5f81\u79d1\u6280\u672a\u6765\u5b9e\u9a8c\u5ba4
p5848
sVAppAccountFlag
p5849
I0
sVVerifyFlag
p5850
I24
sVRemarkPYQuanPin
p5851
g43
sVHeadImgUrl
p5852
V/cgi-bin/mmwebwx-bin/webwxgeticon?seq=648516999&username=@9586d6c514719c4279b50470d7b4df46&skey=@crypt_9fe8734c_86fe8e39d9196b957da5836cfda1b519
p5853
sVKeyWord
p5854
Vgh_
p5855
sVProvince
p5856
V\u5317\u4eac
p5857
sVPYInitial
p5858
VYZKJWLSYS
p5859
sVRemarkName
p5860
g43
sVIsOwner
p5861
I0
sVSex
p5862
I0
sVStarFriend
p5863
I0
sVHideInputBarFlag
p5864
I0
sVChatRoomId
p5865
I0
sVEncryChatRoomId
p5866
g43
sVAttrStatus
p5867
I0
sVStatues
p5868
I0
stp5869
Rp5870
I1
bag25
(g3559
g30
(dp5871
VUserName
p5872
V@bc6ec031b6ad473d8eca535ebf59fe59
p5873
sVCity
p5874
V\u53a6\u95e8
p5875
sVSnsFlag
p5876
I0
sVDisplayName
p5877
g43
sVUniFriend
p5878
I0
sVMemberCount
p5879
I0
sVOwnerUin
p5880
I0
sVMemberList
p5881
g41
sVAlias
p5882
g43
sVPYQuanPin
p5883
VJavabiancheng
p5884
sVSignature
p5885
V\u5173\u6ce8\u8bed\u8a00\u7f16\u7a0bJava\uff0c\u5206\u4eab\u3001\u4ea4\u6d41Java\u7f16\u7a0b\u6280\u5de7\u548c\u4fe1\u606f
p5886
sVRemarkPYInitial
p5887
g43
sVContactFlag
p5888
I1
sVUin
p5889
I0
sVNickName
p5890
VJava\u7f16\u7a0b
p5891
sVAppAccountFlag
p5892
I0
sVVerifyFlag
p5893
I8
sVRemarkPYQuanPin
p5894
g43
sVHeadImgUrl
p5895
V/cgi-bin/mmwebwx-bin/webwxgeticon?seq=661564094&username=@bc6ec031b6ad473d8eca535ebf59fe59&skey=@crypt_9fe8734c_86fe8e39d9196b957da5836cfda1b519
p5896
sVKeyWord
p5897
Vgh_
p5898
sVProvince
p5899
V\u798f\u5efa
p5900
sVPYInitial
p5901
VJAVABC
p5902
sVRemarkName
p5903
g43
sVIsOwner
p5904
I0
sVSex
p5905
I0
sVStarFriend
p5906
I0
sVHideInputBarFlag
p5907
I0
sVChatRoomId
p5908
I0
sVEncryChatRoomId
p5909
g43
sVAttrStatus
p5910
I0
sVStatues
p5911
I0
stp5912
Rp5913
I1
bag25
(g3559
g30
(dp5914
VUserName
p5915
V@64d426c750ae144c518852237e7d0c94
p5916
sVCity
p5917
V\u6d77\u6dc0
p5918
sVSnsFlag
p5919
I0
sVDisplayName
p5920
g43
sVUniFriend
p5921
I0
sVMemberCount
p5922
I0
sVOwnerUin
p5923
I0
sVMemberList
p5924
g41
sVAlias
p5925
g43
sVPYQuanPin
p5926
Vhadoop123
p5927
sVSignature
p5928
V\u6700\u77e5\u540d\u7684Hadoop/Spark/Flink\u7b49\u5927\u6570\u636e\u6280\u672f\u57fa\u5730\uff0c\u5206\u4eabHadoop\u6280\u672f\u5185\u5e55\uff0cHadoop\u6700\u65b0\u6280\u672f\u8fdb\u5c55\uff0c\u53d1\u5e03Hadoop\u76f8\u5173\u804c\u4f4d\u548c\u6c42\u804c\u4fe1\u606f\uff0cHadoop\u6280\u672f\u4ea4\u6d41\u805a\u4f1a\u3001\u8bb2\u5ea7\u4ee5\u53ca\u4f1a\u8bae\u7b49\u3002
p5929
sVRemarkPYInitial
p5930
g43
sVContactFlag
p5931
I3
sVUin
p5932
I0
sVNickName
p5933
Vhadoop123
p5934
sVAppAccountFlag
p5935
I0
sVVerifyFlag
p5936
I8
sVRemarkPYQuanPin
p5937
g43
sVHeadImgUrl
p5938
V/cgi-bin/mmwebwx-bin/webwxgeticon?seq=661564405&username=@64d426c750ae144c518852237e7d0c94&skey=@crypt_9fe8734c_86fe8e39d9196b957da5836cfda1b519
p5939
sVKeyWord
p5940
Vgh_
p5941
sVProvince
p5942
V\u5317\u4eac
p5943
sVPYInitial
p5944
VHADOOP123
p5945
sVRemarkName
p5946
g43
sVIsOwner
p5947
I0
sVSex
p5948
I0
sVStarFriend
p5949
I0
sVHideInputBarFlag
p5950
I0
sVChatRoomId
p5951
I0
sVEncryChatRoomId
p5952
g43
sVAttrStatus
p5953
I0
sVStatues
p5954
I0
stp5955
Rp5956
I1
bag25
(g3559
g30
(dp5957
VUserName
p5958
V@edb6ad20a1fc538046e557e68e345953
p5959
sVCity
p5960
V\u671d\u9633
p5961
sVSnsFlag
p5962
I0
sVDisplayName
p5963
g43
sVUniFriend
p5964
I0
sVMemberCount
p5965
I0
sVOwnerUin
p5966
I0
sVMemberList
p5967
g41
sVAlias
p5968
g43
sVPYQuanPin
p5969
Vshujuyusuanfazhimei
p5970
sVSignature
p5971
V\u7528\u6570\u636e\u601d\u7ef4\u89e3\u51b3\u610f\u60f3\u4e0d\u5230\u7684\u95ee\u9898\uff01
p5972
sVRemarkPYInitial
p5973
g43
sVContactFlag
p5974
I1
sVUin
p5975
I0
sVNickName
p5976
V\u6570\u636e\u4e0e\u7b97\u6cd5\u4e4b\u7f8e
p5977
sVAppAccountFlag
p5978
I0
sVVerifyFlag
p5979
I8
sVRemarkPYQuanPin
p5980
g43
sVHeadImgUrl
p5981
V/cgi-bin/mmwebwx-bin/webwxgeticon?seq=664952383&username=@edb6ad20a1fc538046e557e68e345953&skey=@crypt_9fe8734c_86fe8e39d9196b957da5836cfda1b519
p5982
sVKeyWord
p5983
Vgh_
p5984
sVProvince
p5985
V\u5317\u4eac
p5986
sVPYInitial
p5987
VSJYSFZM
p5988
sVRemarkName
p5989
g43
sVIsOwner
p5990
I0
sVSex
p5991
I0
sVStarFriend
p5992
I0
sVHideInputBarFlag
p5993
I0
sVChatRoomId
p5994
I0
sVEncryChatRoomId
p5995
g43
sVAttrStatus
p5996
I0
sVStatues
p5997
I0
stp5998
Rp5999
I1
bag25
(g3559
g30
(dp6000
VUserName
p6001
V@fca2e772b4f3e89ac2d5d53b6bdb8ad8
p6002
sVCity
p6003
V\u6d77\u6dc0
p6004
sVSnsFlag
p6005
I0
sVDisplayName
p6006
g43
sVUniFriend
p6007
I0
sVMemberCount
p6008
I0
sVOwnerUin
p6009
I0
sVMemberList
p6010
g41
sVAlias
p6011
g43
sVPYQuanPin
p6012
Vshiwanshenghuo
p6013
sVSignature
p6014
V\u8bd5\u73a9\u56e2\u3010\u5b98\u65b9\u5165\u53e3\u3011\uff0c\u8d26\u53f7\u67e5\u8be2\uff0c\u6700\u65b0\u6d3b\u52a8\u53d1\u5e03\uff0c\u4e86\u89e3\u66f4\u591a\u4fe1\u606f\uff0c\u6b22\u8fce\u5173\u6ce8\uff01
p6015
sVRemarkPYInitial
p6016
g43
sVContactFlag
p6017
I1
sVUin
p6018
I0
sVNickName
p6019
V\u8bd5\u73a9\u751f\u6d3b
p6020
sVAppAccountFlag
p6021
I0
sVVerifyFlag
p6022
I24
sVRemarkPYQuanPin
p6023
g43
sVHeadImgUrl
p6024
V/cgi-bin/mmwebwx-bin/webwxgeticon?seq=664952562&username=@fca2e772b4f3e89ac2d5d53b6bdb8ad8&skey=@crypt_9fe8734c_86fe8e39d9196b957da5836cfda1b519
p6025
sVKeyWord
p6026
Vgh_
p6027
sVProvince
p6028
V\u5317\u4eac
p6029
sVPYInitial
p6030
VSWSH
p6031
sVRemarkName
p6032
g43
sVIsOwner
p6033
I0
sVSex
p6034
I0
sVStarFriend
p6035
I0
sVHideInputBarFlag
p6036
I0
sVChatRoomId
p6037
I0
sVEncryChatRoomId
p6038
g43
sVAttrStatus
p6039
I0
sVStatues
p6040
I0
stp6041
Rp6042
I1
bag25
(g3559
g30
(dp6043
VUserName
p6044
V@77b8ed8766b9f3a38cd2021ae8ddc8c9
p6045
sVCity
p6046
V\u4e1c\u57ce
p6047
sVSnsFlag
p6048
I0
sVDisplayName
p6049
g43
sVUniFriend
p6050
I0
sVMemberCount
p6051
I0
sVOwnerUin
p6052
I0
sVMemberList
p6053
g41
sVAlias
p6054
g43
sVPYQuanPin
p6055
VPythonzhongwensheou
p6056
sVSignature
p6057
VPython\u4e2d\u6587\u5f00\u53d1\u8005\u7684\u7cbe\u795e\u5bb6\u56ed
p6058
sVRemarkPYInitial
p6059
g43
sVContactFlag
p6060
I1
sVUin
p6061
I0
sVNickName
p6062
VPython\u4e2d\u6587\u793e\u533a
p6063
sVAppAccountFlag
p6064
I0
sVVerifyFlag
p6065
I8
sVRemarkPYQuanPin
p6066
g43
sVHeadImgUrl
p6067
V/cgi-bin/mmwebwx-bin/webwxgeticon?seq=664952661&username=@77b8ed8766b9f3a38cd2021ae8ddc8c9&skey=@crypt_9fe8734c_86fe8e39d9196b957da5836cfda1b519
p6068
sVKeyWord
p6069
Vgh_
p6070
sVProvince
p6071
V\u5317\u4eac
p6072
sVPYInitial
p6073
VPYTHONZWSO
p6074
sVRemarkName
p6075
g43
sVIsOwner
p6076
I0
sVSex
p6077
I0
sVStarFriend
p6078
I0
sVHideInputBarFlag
p6079
I0
sVChatRoomId
p6080
I0
sVEncryChatRoomId
p6081
g43
sVAttrStatus
p6082
I0
sVStatues
p6083
I0
stp6084
Rp6085
I1
bag25
(g3559
g30
(dp6086
VUserName
p6087
V@94fb1e6ad054c45a76f37091c49cc931
p6088
sVCity
p6089
V\u6d66\u4e1c\u65b0\u533a
p6090
sVSnsFlag
p6091
I0
sVDisplayName
p6092
g43
sVUniFriend
p6093
I0
sVMemberCount
p6094
I0
sVOwnerUin
p6095
I0
sVMemberList
p6096
g41
sVAlias
p6097
g43
sVPYQuanPin
p6098
VNBAjingdianbisaixiazai
p6099
sVSignature
p6100
V\u4e13\u4e1a\u63d0\u4f9bNBA\u7ecf\u5178\u6bd4\u8d5b\u5f55\u50cf\uff0c\u5386\u5c4a\u603b\u51b3\u8d5b\u5168\u660e\u661f\uff0c\u79d1\u6bd4\u4e54\u4e39\u8a79\u59c6\u65af\u7b49\u7403\u661f\u7ecf\u5178\u6bd4\u8d5b\u3002
p6101
sVRemarkPYInitial
p6102
g43
sVContactFlag
p6103
I1
sVUin
p6104
I0
sVNickName
p6105
VNBA\u7ecf\u5178\u6bd4\u8d5b\u4e0b\u8f7d
p6106
sVAppAccountFlag
p6107
I0
sVVerifyFlag
p6108
I8
sVRemarkPYQuanPin
p6109
g43
sVHeadImgUrl
p6110
V/cgi-bin/mmwebwx-bin/webwxgeticon?seq=637991396&username=@94fb1e6ad054c45a76f37091c49cc931&skey=@crypt_9fe8734c_86fe8e39d9196b957da5836cfda1b519
p6111
sVKeyWord
p6112
Vgh_
p6113
sVProvince
p6114
V\u4e0a\u6d77
p6115
sVPYInitial
p6116
VNBAJDBSXZ
p6117
sVRemarkName
p6118
g43
sVIsOwner
p6119
I0
sVSex
p6120
I0
sVStarFriend
p6121
I0
sVHideInputBarFlag
p6122
I0
sVChatRoomId
p6123
I0
sVEncryChatRoomId
p6124
g43
sVAttrStatus
p6125
I0
sVStatues
p6126
I0
stp6127
Rp6128
I1
bag25
(g3559
g30
(dp6129
VUserName
p6130
V@64b628bcd126bab5daddc460aaf924da
p6131
sVCity
p6132
V\u6d77\u6dc0
p6133
sVSnsFlag
p6134
I0
sVDisplayName
p6135
g43
sVUniFriend
p6136
I0
sVMemberCount
p6137
I0
sVOwnerUin
p6138
I0
sVMemberList
p6139
g41
sVAlias
p6140
g43
sVPYQuanPin
p6141
Vjinritoutiao
p6142
sVSignature
p6143
V\u4eca\u65e5\u5934\u6761\u5b98\u65b9\u5e10\u53f7
p6144
sVRemarkPYInitial
p6145
g43
sVContactFlag
p6146
I1
sVUin
p6147
I0
sVNickName
p6148
V\u4eca\u65e5\u5934\u6761
p6149
sVAppAccountFlag
p6150
I0
sVVerifyFlag
p6151
I24
sVRemarkPYQuanPin
p6152
g43
sVHeadImgUrl
p6153
V/cgi-bin/mmwebwx-bin/webwxgeticon?seq=664953094&username=@64b628bcd126bab5daddc460aaf924da&skey=@crypt_9fe8734c_86fe8e39d9196b957da5836cfda1b519
p6154
sVKeyWord
p6155
Vgh_
p6156
sVProvince
p6157
V\u5317\u4eac
p6158
sVPYInitial
p6159
VJRTT
p6160
sVRemarkName
p6161
g43
sVIsOwner
p6162
I0
sVSex
p6163
I0
sVStarFriend
p6164
I0
sVHideInputBarFlag
p6165
I0
sVChatRoomId
p6166
I0
sVEncryChatRoomId
p6167
g43
sVAttrStatus
p6168
I0
sVStatues
p6169
I0
stp6170
Rp6171
I1
bag25
(g3559
g30
(dp6172
VUserName
p6173
V@98195ba089b0d495ac265e4d4c5d2d6d
p6174
sVCity
p6175
V\u6cc9\u5dde
p6176
sVSnsFlag
p6177
I0
sVDisplayName
p6178
g43
sVUniFriend
p6179
I0
sVMemberCount
p6180
I0
sVOwnerUin
p6181
I0
sVMemberList
p6182
g41
sVAlias
p6183
g43
sVPYQuanPin
p6184
Vquanzhouyidong
p6185
sVSignature
p6186
V\u6cc9\u5dde\u79fb\u52a8\u5b98\u5fae\uff0c\u5411\u516c\u4f17\u63d0\u4f9b\u79fb\u52a8\u8bdd\u8d39\u5145\u503c\u3001\u5bbd\u5e26\u9884\u7ea6\u529e\u7406\u3001\u6d41\u91cf\u67e5\u8be2\u53ca\u4f18\u60e0\u6d3b\u52a8\u7b49\u670d\u52a1\u548c\u4fe1\u606f\u3002
p6187
sVRemarkPYInitial
p6188
g43
sVContactFlag
p6189
I1
sVUin
p6190
I0
sVNickName
p6191
V\u6cc9\u5dde\u79fb\u52a8
p6192
sVAppAccountFlag
p6193
I0
sVVerifyFlag
p6194
I24
sVRemarkPYQuanPin
p6195
g43
sVHeadImgUrl
p6196
V/cgi-bin/mmwebwx-bin/webwxgeticon?seq=668410397&username=@98195ba089b0d495ac265e4d4c5d2d6d&skey=@crypt_9fe8734c_86fe8e39d9196b957da5836cfda1b519
p6197
sVKeyWord
p6198
Vgh_
p6199
sVProvince
p6200
V\u798f\u5efa
p6201
sVPYInitial
p6202
VQZYD
p6203
sVRemarkName
p6204
g43
sVIsOwner
p6205
I0
sVSex
p6206
I0
sVStarFriend
p6207
I0
sVHideInputBarFlag
p6208
I0
sVChatRoomId
p6209
I0
sVEncryChatRoomId
p6210
g43
sVAttrStatus
p6211
I0
sVStatues
p6212
I0
stp6213
Rp6214
I1
bag25
(g3559
g30
(dp6215
VUserName
p6216
V@7da7f920f667e01a37988e1d148b5a8f
p6217
sVCity
p6218
V\u6d77\u6dc0
p6219
sVSnsFlag
p6220
I0
sVDisplayName
p6221
g43
sVUniFriend
p6222
I0
sVMemberCount
p6223
I0
sVOwnerUin
p6224
I0
sVMemberList
p6225
g41
sVAlias
p6226
g43
sVPYQuanPin
p6227
Vxinzhiyuan
p6228
sVSignature
p6229
V\u667a\u80fd+\u4e2d\u56fd\u4e3b\u5e73\u53f0\uff0c\u81f4\u529b\u4e8e\u63a8\u52a8\u4e2d\u56fd\u4ece\u4e92\u8054\u7f51+\u8fc8\u5411\u667a\u80fd+\u65b0\u7eaa\u5143\u3002\u91cd\u70b9\u5173\u6ce8\u4eba\u5de5\u667a\u80fd\u3001\u673a\u5668\u4eba\u7b49\u524d\u6cbf\u9886\u57df\u53d1\u5c55\uff0c\u5173\u6ce8\u4eba\u673a\u878d\u5408\u3001\u4eba\u5de5\u667a\u80fd\u548c\u673a\u5668\u4eba\u9769\u547d\u5bf9\u4eba\u7c7b\u793e\u4f1a\u4e0e\u6587\u660e\u8fdb\u5316\u7684\u5f71\u54cd\uff0c\u9886\u822a\u4e2d\u56fd\u65b0\u667a\u80fd\u65f6\u4ee3\u3002
p6230
sVRemarkPYInitial
p6231
g43
sVContactFlag
p6232
I1
sVUin
p6233
I0
sVNickName
p6234
V\u65b0\u667a\u5143
p6235
sVAppAccountFlag
p6236
I0
sVVerifyFlag
p6237
I24
sVRemarkPYQuanPin
p6238
g43
sVHeadImgUrl
p6239
V/cgi-bin/mmwebwx-bin/webwxgeticon?seq=668410421&username=@7da7f920f667e01a37988e1d148b5a8f&skey=@crypt_9fe8734c_86fe8e39d9196b957da5836cfda1b519
p6240
sVKeyWord
p6241
Vgh_
p6242
sVProvince
p6243
V\u5317\u4eac
p6244
sVPYInitial
p6245
VXZY
p6246
sVRemarkName
p6247
g43
sVIsOwner
p6248
I0
sVSex
p6249
I0
sVStarFriend
p6250
I0
sVHideInputBarFlag
p6251
I0
sVChatRoomId
p6252
I0
sVEncryChatRoomId
p6253
g43
sVAttrStatus
p6254
I0
sVStatues
p6255
I0
stp6256
Rp6257
I1
bag25
(g3559
g30
(dp6258
VUserName
p6259
V@b8ecceefd3abfb70931b11509ceb7c4b
p6260
sVCity
p6261
V\u6d77\u6dc0
p6262
sVSnsFlag
p6263
I0
sVDisplayName
p6264
g43
sVUniFriend
p6265
I0
sVMemberCount
p6266
I0
sVOwnerUin
p6267
I0
sVMemberList
p6268
g41
sVAlias
p6269
g43
sVPYQuanPin
p6270
VHadoopjishubowen
p6271
sVSignature
p6272
V\u77e5\u540d\u7684\u5927\u6570\u636e\u6280\u672f\u5206\u4eab\u516c\u4f17\u53f7\u3002\u6bcf\u4e24\u5929\u63a8\u9001\u4e00\u7bc7\u5173\u4e8e\u4f46\u4e0d\u9650\u4e8eSpark\u3001Hadoop\u3001Flink\u3001Kafka\u7b49\u5927\u6570\u636e\u6280\u672f\u76f8\u5173\u535a\u6587\u3001\u4f1a\u8bae\u3001PPT\u3002\u5927\u6570\u636e\u6280\u672f\u535a\u5ba2\uff1ahttps://www.iteblog.com\uff0cGoogle\u005c\u767e\u5ea6\u641c\u7d22 \u8fc7\u5f80\u8bb0\u5fc6\u3002
p6273
sVRemarkPYInitial
p6274
g43
sVContactFlag
p6275
I1
sVUin
p6276
I0
sVNickName
p6277
VHadoop\u6280\u672f\u535a\u6587
p6278
sVAppAccountFlag
p6279
I0
sVVerifyFlag
p6280
I8
sVRemarkPYQuanPin
p6281
g43
sVHeadImgUrl
p6282
V/cgi-bin/mmwebwx-bin/webwxgeticon?seq=668410661&username=@b8ecceefd3abfb70931b11509ceb7c4b&skey=@crypt_9fe8734c_86fe8e39d9196b957da5836cfda1b519
p6283
sVKeyWord
p6284
Vgh_
p6285
sVProvince
p6286
V\u5317\u4eac
p6287
sVPYInitial
p6288
VHADOOPJSBW
p6289
sVRemarkName
p6290
g43
sVIsOwner
p6291
I0
sVSex
p6292
I0
sVStarFriend
p6293
I0
sVHideInputBarFlag
p6294
I0
sVChatRoomId
p6295
I0
sVEncryChatRoomId
p6296
g43
sVAttrStatus
p6297
I0
sVStatues
p6298
I0
stp6299
Rp6300
I1
bag25
(g3559
g30
(dp6301
VUserName
p6302
V@e4526c517eefd4043d3a10f0f5db7d6a
p6303
sVCity
p6304
V\u6d66\u4e1c\u65b0\u533a
p6305
sVSnsFlag
p6306
I0
sVDisplayName
p6307
g43
sVUniFriend
p6308
I0
sVMemberCount
p6309
I0
sVOwnerUin
p6310
I0
sVMemberList
p6311
g41
sVAlias
p6312
g43
sVPYQuanPin
p6313
Vyingqingyong
p6314
sVSignature
p6315
V\u6bcf\u5929\u63a8\u8350\u4e00\u90e8\u597d\u7247\uff0c\u4e0d\u63d0\u4f9b\u6c41\u6e90\u7684\u5b89\u5229\u90fd\u662f\u800d\u6d41\u6c13
p6316
sVRemarkPYInitial
p6317
g43
sVContactFlag
p6318
I1
sVUin
p6319
I0
sVNickName
p6320
V\u5f71\u9752\u5eb8
p6321
sVAppAccountFlag
p6322
I0
sVVerifyFlag
p6323
I8
sVRemarkPYQuanPin
p6324
g43
sVHeadImgUrl
p6325
V/cgi-bin/mmwebwx-bin/webwxgeticon?seq=648518373&username=@e4526c517eefd4043d3a10f0f5db7d6a&skey=@crypt_9fe8734c_86fe8e39d9196b957da5836cfda1b519
p6326
sVKeyWord
p6327
Vgh_
p6328
sVProvince
p6329
V\u4e0a\u6d77
p6330
sVPYInitial
p6331
VYQY
p6332
sVRemarkName
p6333
g43
sVIsOwner
p6334
I0
sVSex
p6335
I0
sVStarFriend
p6336
I0
sVHideInputBarFlag
p6337
I0
sVChatRoomId
p6338
I0
sVEncryChatRoomId
p6339
g43
sVAttrStatus
p6340
I0
sVStatues
p6341
I0
stp6342
Rp6343
I1
bag25
(g3559
g30
(dp6344
VUserName
p6345
V@7cb8107cc604dcf064b87cbdf3361e75
p6346
sVCity
p6347
g43
sVSnsFlag
p6348
I0
sVDisplayName
p6349
g43
sVUniFriend
p6350
I0
sVMemberCount
p6351
I0
sVOwnerUin
p6352
I0
sVMemberList
p6353
g41
sVAlias
p6354
g43
sVPYQuanPin
p6355
VLinuxaihaozhe
p6356
sVSignature
p6357
V\u4f2f\u4e50\u5728\u7ebf\u65d7\u4e0b\u8d26\u53f7\uff0c\u300cLinux\u7231\u597d\u8005\u300d\u4e13\u6ce8\u5206\u4eab Linux/Unix \u76f8\u5173\u5185\u5bb9\uff0c\u5305\u62ec\uff1a\u5de5\u5177\u8d44\u6e90\u3001\u4f7f\u7528\u6280\u5de7\u3001\u8bfe\u7a0b\u4e66\u7c4d\u7b49\u3002
p6358
sVRemarkPYInitial
p6359
g43
sVContactFlag
p6360
I1
sVUin
p6361
I0
sVNickName
p6362
VLinux\u7231\u597d\u8005
p6363
sVAppAccountFlag
p6364
I0
sVVerifyFlag
p6365
I8
sVRemarkPYQuanPin
p6366
g43
sVHeadImgUrl
p6367
V/cgi-bin/mmwebwx-bin/webwxgeticon?seq=668413505&username=@7cb8107cc604dcf064b87cbdf3361e75&skey=@crypt_9fe8734c_86fe8e39d9196b957da5836cfda1b519
p6368
sVKeyWord
p6369
Vgh_
p6370
sVProvince
p6371
g43
sVPYInitial
p6372
VLINUXAHZ
p6373
sVRemarkName
p6374
g43
sVIsOwner
p6375
I0
sVSex
p6376
I0
sVStarFriend
p6377
I0
sVHideInputBarFlag
p6378
I0
sVChatRoomId
p6379
I0
sVEncryChatRoomId
p6380
g43
sVAttrStatus
p6381
I0
sVStatues
p6382
I0
stp6383
Rp6384
I1
bag25
(g3559
g30
(dp6385
VUserName
p6386
V@cb785714a9ac2fc8e0641153c19c5cc5
p6387
sVCity
p6388
V\u5609\u5b9a
p6389
sVSnsFlag
p6390
I0
sVDisplayName
p6391
g43
sVUniFriend
p6392
I0
sVMemberCount
p6393
I0
sVOwnerUin
p6394
I0
sVMemberList
p6395
g41
sVAlias
p6396
g43
sVPYQuanPin
p6397
Vdashujuyujiqixuexiwenzhai
p6398
sVSignature
p6399
V\u5206\u4eab\u5927\u6570\u636e\u6280\u672f\u76f8\u5173\u6587\u7ae0\u548c\u8d44\u6e90
p6400
sVRemarkPYInitial
p6401
g43
sVContactFlag
p6402
I1
sVUin
p6403
I0
sVNickName
p6404
V\u5927\u6570\u636e\u4e0e\u673a\u5668\u5b66\u4e60\u6587\u6458
p6405
sVAppAccountFlag
p6406
I0
sVVerifyFlag
p6407
I8
sVRemarkPYQuanPin
p6408
g43
sVHeadImgUrl
p6409
V/cgi-bin/mmwebwx-bin/webwxgeticon?seq=668413510&username=@cb785714a9ac2fc8e0641153c19c5cc5&skey=@crypt_9fe8734c_86fe8e39d9196b957da5836cfda1b519
p6410
sVKeyWord
p6411
Vgh_
p6412
sVProvince
p6413
V\u4e0a\u6d77
p6414
sVPYInitial
p6415
VDSJYJQXXWZ
p6416
sVRemarkName
p6417
g43
sVIsOwner
p6418
I0
sVSex
p6419
I0
sVStarFriend
p6420
I0
sVHideInputBarFlag
p6421
I0
sVChatRoomId
p6422
I0
sVEncryChatRoomId
p6423
g43
sVAttrStatus
p6424
I0
sVStatues
p6425
I0
stp6426
Rp6427
I1
bag25
(g3559
g30
(dp6428
VUserName
p6429
V@7cb9f901f5f6f93bdf632280d250d28d
p6430
sVCity
p6431
V\u5609\u5b9a
p6432
sVSnsFlag
p6433
I0
sVDisplayName
p6434
g43
sVUniFriend
p6435
I0
sVMemberCount
p6436
I0
sVOwnerUin
p6437
I0
sVMemberList
p6438
g41
sVAlias
p6439
g43
sVPYQuanPin
p6440
Vjishuweizhoukan
p6441
sVSignature
p6442
V\u6c47\u96c6\u6bcf\u5468\u91cd\u8981 IT /\u4e92\u8054\u7f51\u6280\u672f\u8d44\u8baf\u548c\u5f00\u53d1\u76f8\u5173\u6280\u672f\u5e72\u8d27\uff0c\u5c31\u5728\u300c\u6280\u672f\u5fae\u5468\u520a \u300d
p6443
sVRemarkPYInitial
p6444
g43
sVContactFlag
p6445
I1
sVUin
p6446
I0
sVNickName
p6447
V\u6280\u672f\u5fae\u5468\u520a
p6448
sVAppAccountFlag
p6449
I0
sVVerifyFlag
p6450
I24
sVRemarkPYQuanPin
p6451
g43
sVHeadImgUrl
p6452
V/cgi-bin/mmwebwx-bin/webwxgeticon?seq=668413825&username=@7cb9f901f5f6f93bdf632280d250d28d&skey=@crypt_9fe8734c_86fe8e39d9196b957da5836cfda1b519
p6453
sVKeyWord
p6454
Vgh_
p6455
sVProvince
p6456
V\u4e0a\u6d77
p6457
sVPYInitial
p6458
VJSWZK
p6459
sVRemarkName
p6460
g43
sVIsOwner
p6461
I0
sVSex
p6462
I0
sVStarFriend
p6463
I0
sVHideInputBarFlag
p6464
I0
sVChatRoomId
p6465
I0
sVEncryChatRoomId
p6466
g43
sVAttrStatus
p6467
I0
sVStatues
p6468
I0
stp6469
Rp6470
I1
bag25
(g3559
g30
(dp6471
VUserName
p6472
V@7cf6929abb7c936eb4c3edf2c9708c1b
p6473
sVCity
p6474
V\u6cc9\u5dde
p6475
sVSnsFlag
p6476
I0
sVDisplayName
p6477
g43
sVUniFriend
p6478
I0
sVMemberCount
p6479
I0
sVOwnerUin
p6480
I0
sVMemberList
p6481
g41
sVAlias
p6482
g43
sVPYQuanPin
p6483
VBigshujumenggongan
p6484
sVSignature
p6485
V\u6570\u636e\u65f6\u4ee3
p6486
sVRemarkPYInitial
p6487
g43
sVContactFlag
p6488
I1
sVUin
p6489
I0
sVNickName
p6490
VBig\u6570\u636e\u68a6\u5de5\u5382
p6491
sVAppAccountFlag
p6492
I0
sVVerifyFlag
p6493
I8
sVRemarkPYQuanPin
p6494
g43
sVHeadImgUrl
p6495
V/cgi-bin/mmwebwx-bin/webwxgeticon?seq=668414226&username=@7cf6929abb7c936eb4c3edf2c9708c1b&skey=@crypt_9fe8734c_86fe8e39d9196b957da5836cfda1b519
p6496
sVKeyWord
p6497
Vgh_
p6498
sVProvince
p6499
V\u798f\u5efa
p6500
sVPYInitial
p6501
VBIGSJMGA
p6502
sVRemarkName
p6503
g43
sVIsOwner
p6504
I0
sVSex
p6505
I0
sVStarFriend
p6506
I0
sVHideInputBarFlag
p6507
I0
sVChatRoomId
p6508
I0
sVEncryChatRoomId
p6509
g43
sVAttrStatus
p6510
I0
sVStatues
p6511
I0
stp6512
Rp6513
I1
bag25
(g3559
g30
(dp6514
VUserName
p6515
V@25a0480c38babd031524afe8798d809a
p6516
sVCity
p6517
V\u82cf\u5dde
p6518
sVSnsFlag
p6519
I0
sVDisplayName
p6520
g43
sVUniFriend
p6521
I0
sVMemberCount
p6522
I0
sVOwnerUin
p6523
I0
sVMemberList
p6524
g41
sVAlias
p6525
g43
sVPYQuanPin
p6526
Vhuangji2uliangpin
p6527
sVSignature
p6528
V\u9ec4\u8bb02u\u826f\u54c1\uff0c10\u5e74\u5916\u8d38\u8001\u5e97\uff0c\u4e13\u6ce8\u5916\u8d38\u7537\u88c5
p6529
sVRemarkPYInitial
p6530
g43
sVContactFlag
p6531
I1
sVUin
p6532
I0
sVNickName
p6533
V\u9ec4\u8bb02u\u826f\u54c1
p6534
sVAppAccountFlag
p6535
I0
sVVerifyFlag
p6536
I8
sVRemarkPYQuanPin
p6537
g43
sVHeadImgUrl
p6538
V/cgi-bin/mmwebwx-bin/webwxgeticon?seq=668415464&username=@25a0480c38babd031524afe8798d809a&skey=@crypt_9fe8734c_86fe8e39d9196b957da5836cfda1b519
p6539
sVKeyWord
p6540
Vgh_
p6541
sVProvince
p6542
V\u6c5f\u82cf
p6543
sVPYInitial
p6544
VHJ2ULP
p6545
sVRemarkName
p6546
g43
sVIsOwner
p6547
I0
sVSex
p6548
I0
sVStarFriend
p6549
I0
sVHideInputBarFlag
p6550
I0
sVChatRoomId
p6551
I0
sVEncryChatRoomId
p6552
g43
sVAttrStatus
p6553
I0
sVStatues
p6554
I0
stp6555
Rp6556
I1
bag25
(g3559
g30
(dp6557
VUserName
p6558
V@52ce9d1e26d019d1aca7eb7dc1e5b2fa
p6559
sVCity
p6560
V\u4e30\u53f0
p6561
sVSnsFlag
p6562
I0
sVDisplayName
p6563
g43
sVUniFriend
p6564
I0
sVMemberCount
p6565
I0
sVOwnerUin
p6566
I0
sVMemberList
p6567
g41
sVAlias
p6568
g43
sVPYQuanPin
p6569
Vdaren6hao
p6570
sVSignature
p6571
V\u7ea2\u5305\u8fbe\u4eba\u5b98\u65b9\u516c\u4f17\u53f7\uff0c\u4eba\u4eba\u90fd\u80fd\u6210\u4e3a\u8d5a\u94b1\u9ad8\u624b\uff0c\u968f\u65f6\u968f\u5730\u8d5a\u94b1\u3002
p6572
sVRemarkPYInitial
p6573
g43
sVContactFlag
p6574
I1
sVUin
p6575
I0
sVNickName
p6576
V\u8fbe\u4eba6\u53f7
p6577
sVAppAccountFlag
p6578
I0
sVVerifyFlag
p6579
I24
sVRemarkPYQuanPin
p6580
g43
sVHeadImgUrl
p6581
V/cgi-bin/mmwebwx-bin/webwxgeticon?seq=648486543&username=@52ce9d1e26d019d1aca7eb7dc1e5b2fa&skey=@crypt_9fe8734c_86fe8e39d9196b957da5836cfda1b519
p6582
sVKeyWord
p6583
Vgh_
p6584
sVProvince
p6585
V\u5317\u4eac
p6586
sVPYInitial
p6587
VDR6H
p6588
sVRemarkName
p6589
g43
sVIsOwner
p6590
I0
sVSex
p6591
I0
sVStarFriend
p6592
I0
sVHideInputBarFlag
p6593
I0
sVChatRoomId
p6594
I0
sVEncryChatRoomId
p6595
g43
sVAttrStatus
p6596
I0
sVStatues
p6597
I0
stp6598
Rp6599
I1
bag25
(g3559
g30
(dp6600
VUserName
p6601
V@e8bdeae4cd6515c9ca9795b465f76cb5
p6602
sVCity
p6603
V\u5357\u660c
p6604
sVSnsFlag
p6605
I0
sVDisplayName
p6606
g43
sVUniFriend
p6607
I0
sVMemberCount
p6608
I0
sVOwnerUin
p6609
I0
sVMemberList
p6610
g41
sVAlias
p6611
g43
sVPYQuanPin
p6612
Vyuexingnachang
p6613
sVSignature
p6614
V\u672c\u5e73\u53f0\u63d0\u4f9b\u4ea4\u901a\u8fdd\u6cd5\u67e5\u8be2\u3001\u9a7e\u9a76\u8bc1\u67e5\u8be2\u3001\u5b9e\u65f6\u8def\u51b5\u67e5\u8be2\u3001\u529e\u4e8b\u6307\u5357\u3001\u9a7e\u9a76\u8bc1\u548c\u884c\u9a76\u8bc1\u7684\u8865\u6362\u4e1a\u52a1\u7b49\u529f\u80fd\u3002\u7279\u522b\u63d0\u9192\uff1a\u672c\u5e73\u53f0\u4ec5\u63d0\u4f9b\u4e1a\u52a1\u529e\u7406\u548c\u53d1\u5e03\u4fe1\u606f\u529f\u80fd\uff0c\u5982\u9700\u62a5\u8b66\u8bf7\u62e8\u6253\u201c110\u201d\u3002
p6615
sVRemarkPYInitial
p6616
g43
sVContactFlag
p6617
I1
sVUin
p6618
I0
sVNickName
p6619
V\u4e50\u884c\u5357\u660c
p6620
sVAppAccountFlag
p6621
I0
sVVerifyFlag
p6622
I24
sVRemarkPYQuanPin
p6623
g43
sVHeadImgUrl
p6624
V/cgi-bin/mmwebwx-bin/webwxgeticon?seq=668418192&username=@e8bdeae4cd6515c9ca9795b465f76cb5&skey=@crypt_9fe8734c_86fe8e39d9196b957da5836cfda1b519
p6625
sVKeyWord
p6626
Vgh_
p6627
sVProvince
p6628
V\u6c5f\u897f
p6629
sVPYInitial
p6630
VYXNC
p6631
sVRemarkName
p6632
g43
sVIsOwner
p6633
I0
sVSex
p6634
I0
sVStarFriend
p6635
I0
sVHideInputBarFlag
p6636
I0
sVChatRoomId
p6637
I0
sVEncryChatRoomId
p6638
g43
sVAttrStatus
p6639
I0
sVStatues
p6640
I0
stp6641
Rp6642
I1
bag25
(g3559
g30
(dp6643
VUserName
p6644
V@1e90f8ab40598490bdc859e0d979f873
p6645
sVCity
p6646
V\u671d\u9633
p6647
sVSnsFlag
p6648
I0
sVDisplayName
p6649
g43
sVUniFriend
p6650
I0
sVMemberCount
p6651
I0
sVOwnerUin
p6652
I0
sVMemberList
p6653
g41
sVAlias
p6654
g43
sVPYQuanPin
p6655
Vduodiankeji
p6656
sVSignature
p6657
V\u6211\u4eec\u81f4\u529b\u4e8e\u6784\u5efa\u672a\u6765\u7684\u6570\u5b57\u793e\u7fa4\u751f\u6001\u7cfb\u7edf\uff0c\u4e3a\u4e0a\u4ebf\u7528\u6237\u63d0\u4f9b\u4ea7\u54c1\u548c\u670d\u52a1\uff0c\u8ba9\u5176\u53ef\u501f\u52a9\u4e92\u8054\u7f51\u8fdb\u884c\u4ea4\u6d41\u4e0e\u534f\u4f5c\u3002\u4e3b\u8981\u4e1a\u52a1\u5305\u62ec\u79fb\u52a8\u5e94\u7528\u5a92\u4f53\u5e73\u53f0\u3001\u6587\u5b57\u521b\u4f5c\u793e\u533a\u3001\u79fb\u52a8\u5e7f\u544a\u8425\u9500\u548c\u4e92\u8054\u7f51\u793e\u533a\u4e1a\u52a1\u7b49\u521b\u65b0\u4e1a\u52a1\u3002
p6658
sVRemarkPYInitial
p6659
g43
sVContactFlag
p6660
I3
sVUin
p6661
I0
sVNickName
p6662
V\u591a\u70b9\u79d1\u6280
p6663
sVAppAccountFlag
p6664
I0
sVVerifyFlag
p6665
I24
sVRemarkPYQuanPin
p6666
g43
sVHeadImgUrl
p6667
V/cgi-bin/mmwebwx-bin/webwxgeticon?seq=668420229&username=@1e90f8ab40598490bdc859e0d979f873&skey=@crypt_9fe8734c_86fe8e39d9196b957da5836cfda1b519
p6668
sVKeyWord
p6669
Vgh_
p6670
sVProvince
p6671
V\u5317\u4eac
p6672
sVPYInitial
p6673
VDDKJ
p6674
sVRemarkName
p6675
g43
sVIsOwner
p6676
I0
sVSex
p6677
I0
sVStarFriend
p6678
I0
sVHideInputBarFlag
p6679
I0
sVChatRoomId
p6680
I0
sVEncryChatRoomId
p6681
g43
sVAttrStatus
p6682
I0
sVStatues
p6683
I0
stp6684
Rp6685
I1
bag25
(g3559
g30
(dp6686
VUserName
p6687
V@f3d359097a85ab60e1b2b202513eb602
p6688
sVCity
p6689
V\u4e1c\u57ce
p6690
sVSnsFlag
p6691
I0
sVDisplayName
p6692
g43
sVUniFriend
p6693
I0
sVMemberCount
p6694
I0
sVOwnerUin
p6695
I0
sVMemberList
p6696
g41
sVAlias
p6697
g43
sVPYQuanPin
p6698
Vtanmiwang
p6699
sVSignature
p6700
V\u3010\u63a2\u7c73\u5b98\u65b9\u8d26\u53f7\u3011\u63a2\u7c73 - \u505a\u4f60\u6700\u597d\u7684\u8d5a\u94b1\u4f19\u4f34
p6701
sVRemarkPYInitial
p6702
g43
sVContactFlag
p6703
I3
sVUin
p6704
I0
sVNickName
p6705
V\u63a2\u7c73\u7f51
p6706
sVAppAccountFlag
p6707
I0
sVVerifyFlag
p6708
I24
sVRemarkPYQuanPin
p6709
g43
sVHeadImgUrl
p6710
V/cgi-bin/mmwebwx-bin/webwxgeticon?seq=668420505&username=@f3d359097a85ab60e1b2b202513eb602&skey=@crypt_9fe8734c_86fe8e39d9196b957da5836cfda1b519
p6711
sVKeyWord
p6712
Vgh_
p6713
sVProvince
p6714
V\u5317\u4eac
p6715
sVPYInitial
p6716
VTMW
p6717
sVRemarkName
p6718
g43
sVIsOwner
p6719
I0
sVSex
p6720
I0
sVStarFriend
p6721
I0
sVHideInputBarFlag
p6722
I0
sVChatRoomId
p6723
I0
sVEncryChatRoomId
p6724
g43
sVAttrStatus
p6725
I0
sVStatues
p6726
I0
stp6727
Rp6728
I1
bag25
(g3559
g30
(dp6729
VUserName
p6730
V@a14b2ca2b517391e9c0eb86555e20d65
p6731
sVCity
p6732
V\u6cc9\u5dde
p6733
sVSnsFlag
p6734
I0
sVDisplayName
p6735
g43
sVUniFriend
p6736
I0
sVMemberCount
p6737
I0
sVOwnerUin
p6738
I0
sVMemberList
p6739
g41
sVAlias
p6740
g43
sVPYQuanPin
p6741
Vsheouzhongxinweixiuzu
p6742
sVSignature
p6743
V\u6211\u4eec\u662f\u534e\u5927\u5b66\u751f\u793e\u533a\u4e2d\u5fc3\u534f\u7ba1\u4f1a\u7684\u7ef4\u4fee\u8054\u7edc\u90e8\uff0c\u5173\u4e8e\u5b66\u751f\u793e\u533a\u62a5\u4fee\u7684\u4efb\u4f55\u95ee\u9898\u6b22\u8fce\u79c1\u6233\u6211\u4eec~
p6744
sVRemarkPYInitial
p6745
g43
sVContactFlag
p6746
I1
sVUin
p6747
I0
sVNickName
p6748
V\u793e\u533a\u4e2d\u5fc3\u7ef4\u4fee\u7ec4
p6749
sVAppAccountFlag
p6750
I0
sVVerifyFlag
p6751
I8
sVRemarkPYQuanPin
p6752
g43
sVHeadImgUrl
p6753
V/cgi-bin/mmwebwx-bin/webwxgeticon?seq=668420355&username=@a14b2ca2b517391e9c0eb86555e20d65&skey=@crypt_9fe8734c_86fe8e39d9196b957da5836cfda1b519
p6754
sVKeyWord
p6755
Vgh_
p6756
sVProvince
p6757
V\u798f\u5efa
p6758
sVPYInitial
p6759
VSOZXWXZ
p6760
sVRemarkName
p6761
g43
sVIsOwner
p6762
I0
sVSex
p6763
I0
sVStarFriend
p6764
I0
sVHideInputBarFlag
p6765
I0
sVChatRoomId
p6766
I0
sVEncryChatRoomId
p6767
g43
sVAttrStatus
p6768
I0
sVStatues
p6769
I0
stp6770
Rp6771
I1
bag25
(g3559
g30
(dp6772
VUserName
p6773
V@63f92935999c33ca039ccb303f99d9da
p6774
sVCity
p6775
V\u666e\u9640
p6776
sVSnsFlag
p6777
I0
sVDisplayName
p6778
g43
sVUniFriend
p6779
I0
sVMemberCount
p6780
I0
sVOwnerUin
p6781
I0
sVMemberList
p6782
g41
sVAlias
p6783
g43
sVPYQuanPin
p6784
Vyingshanlaile
p6785
sVSignature
p6786
V\u5982\u679c\u4f60\u4e0d\u77e5\u9053\u770b\u4ec0\u4e48\u7535\u5f71\uff0c\u5173\u6ce8\u6211\u5c31\u5bf9\u4e86\u3002\u5230\u4e86\u8fd9\u91cc\uff0c\u4f60\u7684\u4f59\u751f\u5c06\u544a\u522b\u201c\u70c2\u7247\u201d\u4e24\u4e2a\u5b57\u3002\u5f71\u5355\u732b\u8fd9\u8f88\u5b50\u9664\u4e86\u5403\u996d\u7761\u89c9\u5c31\u662f\u770b\u7535\u5f71\uff0c\u5728\u88ab\u70c2\u7247\u7838\u6655\u540e\u53d1\u8a93\u8981\u628a\u770b\u8fc7\u7684\u597d\u7247\u4e00\u4e00\u6311\u51fa\u6765\uff0c\u63a8\u8350\u7ed9\u4f60\u3002\u54e6\u5bf9\u4e86\uff0c\u626b\u6d77\u62a5\u4e0b\u9762\u7684\u4e8c\u7ef4\u7801\u8fd8\u80fd\u76f4\u63a5\u89c2\u770b\u3002\u6ca1\u5176\u4ed6\u95ee\u9898\u6211\u5148\u770b\u7247\u53bb\u4e86\uff0c\u6bd4\u5fc3
p6787
sVRemarkPYInitial
p6788
g43
sVContactFlag
p6789
I1
sVUin
p6790
I0
sVNickName
p6791
V\u5f71\u5355\u6765\u4e86
p6792
sVAppAccountFlag
p6793
I0
sVVerifyFlag
p6794
I24
sVRemarkPYQuanPin
p6795
g43
sVHeadImgUrl
p6796
V/cgi-bin/mmwebwx-bin/webwxgeticon?seq=668421132&username=@63f92935999c33ca039ccb303f99d9da&skey=@crypt_9fe8734c_86fe8e39d9196b957da5836cfda1b519
p6797
sVKeyWord
p6798
Vgh_
p6799
sVProvince
p6800
V\u4e0a\u6d77
p6801
sVPYInitial
p6802
VYSLL
p6803
sVRemarkName
p6804
g43
sVIsOwner
p6805
I0
sVSex
p6806
I0
sVStarFriend
p6807
I0
sVHideInputBarFlag
p6808
I0
sVChatRoomId
p6809
I0
sVEncryChatRoomId
p6810
g43
sVAttrStatus
p6811
I0
sVStatues
p6812
I0
stp6813
Rp6814
I1
bag25
(g3559
g30
(dp6815
VUserName
p6816
V@6ccfe5fa8641d77278f95eb763e1a0ef
p6817
sVCity
p6818
g43
sVSnsFlag
p6819
I0
sVDisplayName
p6820
g43
sVUniFriend
p6821
I0
sVMemberCount
p6822
I0
sVOwnerUin
p6823
I0
sVMemberList
p6824
g41
sVAlias
p6825
g43
sVPYQuanPin
p6826
Vwoaijiqixuexi
p6827
sVSignature
p6828
V\u5173\u6ce8deep learning\uff0c\u673a\u5668\u5b66\u4e60\uff0c\u5927\u6570\u636e\uff0c\u641c\u7d22\u5f15\u64ce\uff0c\u81ea\u7136\u8bed\u8a00\u5904\u7406\u4ee5\u53ca\u673a\u5668\u5b66\u4e60\u5468\u8fb9\u52a8\u6001\uff0852ml.net\uff09\u3002
p6829
sVRemarkPYInitial
p6830
g43
sVContactFlag
p6831
I1
sVUin
p6832
I0
sVNickName
p6833
V\u6211\u7231\u673a\u5668\u5b66\u4e60
p6834
sVAppAccountFlag
p6835
I0
sVVerifyFlag
p6836
I8
sVRemarkPYQuanPin
p6837
g43
sVHeadImgUrl
p6838
V/cgi-bin/mmwebwx-bin/webwxgeticon?seq=668421471&username=@6ccfe5fa8641d77278f95eb763e1a0ef&skey=@crypt_9fe8734c_86fe8e39d9196b957da5836cfda1b519
p6839
sVKeyWord
p6840
Vgh_
p6841
sVProvince
p6842
V\u5317\u4eac
p6843
sVPYInitial
p6844
VWAJQXX
p6845
sVRemarkName
p6846
g43
sVIsOwner
p6847
I0
sVSex
p6848
I0
sVStarFriend
p6849
I0
sVHideInputBarFlag
p6850
I0
sVChatRoomId
p6851
I0
sVEncryChatRoomId
p6852
g43
sVAttrStatus
p6853
I0
sVStatues
p6854
I0
stp6855
Rp6856
I1
bag25
(g3559
g30
(dp6857
VUserName
p6858
V@8207aa5cffc90a8ef5aa71e0b67d2628
p6859
sVCity
p6860
V\u671d\u9633
p6861
sVSnsFlag
p6862
I0
sVDisplayName
p6863
g43
sVUniFriend
p6864
I0
sVMemberCount
p6865
I0
sVOwnerUin
p6866
I0
sVMemberList
p6867
g41
sVAlias
p6868
g43
sVPYQuanPin
p6869
Vtianxiazuqiuguanfanggongzhonghao
p6870
sVSignature
p6871
V\u4e2d\u592e\u7535\u89c6\u53f0\u4f53\u80b2\u9891\u9053\u300a\u5929\u4e0b\u8db3\u7403\u300b\u680f\u76ee\u516c\u4f17\u53f7\uff0c\u4e3a\u7c89\u4e1d\u63d0\u4f9b\u8282\u76ee\u9884\u544a\uff0c\u4e16\u754c\u8db3\u575b\u8d44\u8baf\uff0c\u4e13\u9898\u6545\u4e8b\u7b49\u5185\u5bb9\u3002
p6872
sVRemarkPYInitial
p6873
g43
sVContactFlag
p6874
I1
sVUin
p6875
I0
sVNickName
p6876
V\u5929\u4e0b\u8db3\u7403\u5b98\u65b9\u516c\u4f17\u53f7
p6877
sVAppAccountFlag
p6878
I0
sVVerifyFlag
p6879
I24
sVRemarkPYQuanPin
p6880
g43
sVHeadImgUrl
p6881
V/cgi-bin/mmwebwx-bin/webwxgeticon?seq=668422995&username=@8207aa5cffc90a8ef5aa71e0b67d2628&skey=@crypt_9fe8734c_86fe8e39d9196b957da5836cfda1b519
p6882
sVKeyWord
p6883
Vgh_
p6884
sVProvince
p6885
V\u5317\u4eac
p6886
sVPYInitial
p6887
VTXZQGFGZH
p6888
sVRemarkName
p6889
g43
sVIsOwner
p6890
I0
sVSex
p6891
I0
sVStarFriend
p6892
I0
sVHideInputBarFlag
p6893
I0
sVChatRoomId
p6894
I0
sVEncryChatRoomId
p6895
g43
sVAttrStatus
p6896
I0
sVStatues
p6897
I0
stp6898
Rp6899
I1
batp6900
Rp6901
I1
bssS'loginInfo'
p6902
(dp6903
S'SyncKey'
p6904
(dp6905
VCount
p6906
I4
sVList
p6907
(lp6908
(dp6909
VVal
p6910
I668425860
sVKey
p6911
I1
sa(dp6912
VVal
p6913
I668426036
sVKey
p6914
I2
sa(dp6915
VVal
p6916
I668426020
sVKey
p6917
I3
sa(dp6918
VVal
p6919
I1496914922
sVKey
p6920
I1000
sassS'syncUrl'
p6921
S'https://webpush.wx.qq.com/cgi-bin/mmwebwx-bin'
p6922
sS'skey'
p6923
V@crypt_9fe8734c_86fe8e39d9196b957da5836cfda1b519
p6924
sS'wxuin'
p6925
V1727002728
p6926
sS'synckey'
p6927
S'1_668425860|2_668426036|3_668426020|1000_1496914922'
p6928
sS'url'
p6929
Vhttps://wx.qq.com/cgi-bin/mmwebwx-bin
p6930
sS'pass_ticket'
p6931
V9sPQKJfqBPQDZ1SL14vCEo%2BXh6deBEpVHtCY4pDIucUhzN8nskw0ZQOuymOxxPZY
p6932
sS'wxsid'
p6933
V02J/87eFb8AOvd33
p6934
sS'InviteStartCount'
p6935
I40
sS'deviceid'
p6936
S'e577075804154834'
p6937
sS'fileUrl'
p6938
S'https://file.wx.qq.com/cgi-bin/mmwebwx-bin'
p6939
sS'BaseRequest'
p6940
(dp6941
g45
g6926
sS'Skey'
p6942
g6924
sS'DeviceID'
p6943
g6932
sS'Sid'
p6944
g6934
ssS'User'
p6945
g25
(g29
g30
(dp6946
g32
g22
sg33
g34
sg35
g34
sg36
I0
sg38
g41
sg42
g43
sg44
g43
sg68
I1
sg46
I0
sg47
I0
sg48
g34
sg49
g34
sg50
g43
sg51
g43
sg52
I0
sg53
I0
sg54
I1
sg55
g34
sg56
I0
sg59
I0
sg57
I17
sg58
I0
sg37
I0
sg60
g34
sg61
g43
sg62
I0
sg63
g64
sg65
g43
sg66
g67
sg45
I1727002728
sg69
I0
sg70
I0
stp6947
Rp6948
I1
bss.